                                      1 ;--------------------------------------------------------
                                      2 ; File Created by SDCC : free open source ISO C Compiler
                                      3 ; Version 4.5.0 #15242 (MINGW64)
                                      4 ;--------------------------------------------------------
                                      5 	.module BME680
                                      6 	
                                      7 	.optsdcc -mmcs51 --model-small
                                      8 ;--------------------------------------------------------
                                      9 ; Public variables in this module
                                     10 ;--------------------------------------------------------
                                     11 	.globl _reg_write
                                     12 	.globl _reg_read
                                     13 	.globl _spi_init
                                     14 	.globl _Serial_println
                                     15 	.globl _Serial_print_uint
                                     16 	.globl _Serial_print
                                     17 	.globl _UIF_BUS_RST
                                     18 	.globl _UIF_DETECT
                                     19 	.globl _UIF_TRANSFER
                                     20 	.globl _UIF_SUSPEND
                                     21 	.globl _UIF_HST_SOF
                                     22 	.globl _UIF_FIFO_OV
                                     23 	.globl _U_SIE_FREE
                                     24 	.globl _U_TOG_OK
                                     25 	.globl _U_IS_NAK
                                     26 	.globl _ADC_CHAN0
                                     27 	.globl _ADC_CHAN1
                                     28 	.globl _CMP_CHAN
                                     29 	.globl _ADC_START
                                     30 	.globl _ADC_IF
                                     31 	.globl _CMP_IF
                                     32 	.globl _CMPO
                                     33 	.globl _U1RI
                                     34 	.globl _U1TI
                                     35 	.globl _U1RB8
                                     36 	.globl _U1TB8
                                     37 	.globl _U1REN
                                     38 	.globl _U1SMOD
                                     39 	.globl _U1SM0
                                     40 	.globl _S0_R_FIFO
                                     41 	.globl _S0_T_FIFO
                                     42 	.globl _S0_FREE
                                     43 	.globl _S0_IF_BYTE
                                     44 	.globl _S0_IF_FIRST
                                     45 	.globl _S0_IF_OV
                                     46 	.globl _S0_FST_ACT
                                     47 	.globl _CP_RL2
                                     48 	.globl _C_T2
                                     49 	.globl _TR2
                                     50 	.globl _EXEN2
                                     51 	.globl _TCLK
                                     52 	.globl _RCLK
                                     53 	.globl _EXF2
                                     54 	.globl _CAP1F
                                     55 	.globl _TF2
                                     56 	.globl _RI
                                     57 	.globl _TI
                                     58 	.globl _RB8
                                     59 	.globl _TB8
                                     60 	.globl _REN
                                     61 	.globl _SM2
                                     62 	.globl _SM1
                                     63 	.globl _SM0
                                     64 	.globl _IT0
                                     65 	.globl _IE0
                                     66 	.globl _IT1
                                     67 	.globl _IE1
                                     68 	.globl _TR0
                                     69 	.globl _TF0
                                     70 	.globl _TR1
                                     71 	.globl _TF1
                                     72 	.globl _RXD
                                     73 	.globl _PWM1_
                                     74 	.globl _TXD
                                     75 	.globl _PWM2_
                                     76 	.globl _AIN3
                                     77 	.globl _VBUS1
                                     78 	.globl _INT0
                                     79 	.globl _TXD1_
                                     80 	.globl _INT1
                                     81 	.globl _T0
                                     82 	.globl _RXD1_
                                     83 	.globl _PWM2
                                     84 	.globl _T1
                                     85 	.globl _UDP
                                     86 	.globl _UDM
                                     87 	.globl _TIN0
                                     88 	.globl _CAP1
                                     89 	.globl _T2
                                     90 	.globl _AIN0
                                     91 	.globl _VBUS2
                                     92 	.globl _TIN1
                                     93 	.globl _CAP2
                                     94 	.globl _T2EX
                                     95 	.globl _RXD_
                                     96 	.globl _TXD_
                                     97 	.globl _AIN1
                                     98 	.globl _UCC1
                                     99 	.globl _TIN2
                                    100 	.globl _SCS
                                    101 	.globl _CAP1_
                                    102 	.globl _T2_
                                    103 	.globl _AIN2
                                    104 	.globl _UCC2
                                    105 	.globl _TIN3
                                    106 	.globl _PWM1
                                    107 	.globl _MOSI
                                    108 	.globl _TIN4
                                    109 	.globl _RXD1
                                    110 	.globl _MISO
                                    111 	.globl _TIN5
                                    112 	.globl _TXD1
                                    113 	.globl _SCK
                                    114 	.globl _IE_SPI0
                                    115 	.globl _IE_TKEY
                                    116 	.globl _IE_USB
                                    117 	.globl _IE_ADC
                                    118 	.globl _IE_UART1
                                    119 	.globl _IE_PWMX
                                    120 	.globl _IE_GPIO
                                    121 	.globl _IE_WDOG
                                    122 	.globl _PX0
                                    123 	.globl _PT0
                                    124 	.globl _PX1
                                    125 	.globl _PT1
                                    126 	.globl _PS
                                    127 	.globl _PT2
                                    128 	.globl _PL_FLAG
                                    129 	.globl _PH_FLAG
                                    130 	.globl _EX0
                                    131 	.globl _ET0
                                    132 	.globl _EX1
                                    133 	.globl _ET1
                                    134 	.globl _ES
                                    135 	.globl _ET2
                                    136 	.globl _E_DIS
                                    137 	.globl _EA
                                    138 	.globl _P
                                    139 	.globl _F1
                                    140 	.globl _OV
                                    141 	.globl _RS0
                                    142 	.globl _RS1
                                    143 	.globl _F0
                                    144 	.globl _AC
                                    145 	.globl _CY
                                    146 	.globl _UEP1_DMA_H
                                    147 	.globl _UEP1_DMA_L
                                    148 	.globl _UEP1_DMA
                                    149 	.globl _UEP0_DMA_H
                                    150 	.globl _UEP0_DMA_L
                                    151 	.globl _UEP0_DMA
                                    152 	.globl _UEP2_3_MOD
                                    153 	.globl _UEP4_1_MOD
                                    154 	.globl _UEP3_DMA_H
                                    155 	.globl _UEP3_DMA_L
                                    156 	.globl _UEP3_DMA
                                    157 	.globl _UEP2_DMA_H
                                    158 	.globl _UEP2_DMA_L
                                    159 	.globl _UEP2_DMA
                                    160 	.globl _USB_DEV_AD
                                    161 	.globl _USB_CTRL
                                    162 	.globl _USB_INT_EN
                                    163 	.globl _UEP4_T_LEN
                                    164 	.globl _UEP4_CTRL
                                    165 	.globl _UEP0_T_LEN
                                    166 	.globl _UEP0_CTRL
                                    167 	.globl _USB_RX_LEN
                                    168 	.globl _USB_MIS_ST
                                    169 	.globl _USB_INT_ST
                                    170 	.globl _USB_INT_FG
                                    171 	.globl _UEP3_T_LEN
                                    172 	.globl _UEP3_CTRL
                                    173 	.globl _UEP2_T_LEN
                                    174 	.globl _UEP2_CTRL
                                    175 	.globl _UEP1_T_LEN
                                    176 	.globl _UEP1_CTRL
                                    177 	.globl _UDEV_CTRL
                                    178 	.globl _USB_C_CTRL
                                    179 	.globl _TKEY_DATH
                                    180 	.globl _TKEY_DATL
                                    181 	.globl _TKEY_DAT
                                    182 	.globl _TKEY_CTRL
                                    183 	.globl _ADC_DATA
                                    184 	.globl _ADC_CFG
                                    185 	.globl _ADC_CTRL
                                    186 	.globl _SBAUD1
                                    187 	.globl _SBUF1
                                    188 	.globl _SCON1
                                    189 	.globl _SPI0_SETUP
                                    190 	.globl _SPI0_CK_SE
                                    191 	.globl _SPI0_CTRL
                                    192 	.globl _SPI0_DATA
                                    193 	.globl _SPI0_STAT
                                    194 	.globl _PWM_CK_SE
                                    195 	.globl _PWM_CTRL
                                    196 	.globl _PWM_DATA1
                                    197 	.globl _PWM_DATA2
                                    198 	.globl _T2CAP1H
                                    199 	.globl _T2CAP1L
                                    200 	.globl _T2CAP1
                                    201 	.globl _TH2
                                    202 	.globl _TL2
                                    203 	.globl _T2COUNT
                                    204 	.globl _RCAP2H
                                    205 	.globl _RCAP2L
                                    206 	.globl _RCAP2
                                    207 	.globl _T2MOD
                                    208 	.globl _T2CON
                                    209 	.globl _SBUF
                                    210 	.globl _SCON
                                    211 	.globl _TH1
                                    212 	.globl _TH0
                                    213 	.globl _TL1
                                    214 	.globl _TL0
                                    215 	.globl _TMOD
                                    216 	.globl _TCON
                                    217 	.globl _XBUS_AUX
                                    218 	.globl _PIN_FUNC
                                    219 	.globl _P3_DIR_PU
                                    220 	.globl _P3_MOD_OC
                                    221 	.globl _P3
                                    222 	.globl _P2
                                    223 	.globl _P1_DIR_PU
                                    224 	.globl _P1_MOD_OC
                                    225 	.globl _P1
                                    226 	.globl _ROM_CTRL
                                    227 	.globl _ROM_DATA_H
                                    228 	.globl _ROM_DATA_L
                                    229 	.globl _ROM_DATA
                                    230 	.globl _ROM_ADDR_H
                                    231 	.globl _ROM_ADDR_L
                                    232 	.globl _ROM_ADDR
                                    233 	.globl _GPIO_IE
                                    234 	.globl _IP_EX
                                    235 	.globl _IE_EX
                                    236 	.globl _IP
                                    237 	.globl _IE
                                    238 	.globl _WDOG_COUNT
                                    239 	.globl _RESET_KEEP
                                    240 	.globl _WAKE_CTRL
                                    241 	.globl _CLOCK_CFG
                                    242 	.globl _PCON
                                    243 	.globl _GLOBAL_CFG
                                    244 	.globl _SAFE_MOD
                                    245 	.globl _DPH
                                    246 	.globl _DPL
                                    247 	.globl _SP
                                    248 	.globl _B
                                    249 	.globl _ACC
                                    250 	.globl _PSW
                                    251 	.globl _BME680_init
                                    252 	.globl _BME680_update
                                    253 	.globl _BME680_getState
                                    254 ;--------------------------------------------------------
                                    255 ; special function registers
                                    256 ;--------------------------------------------------------
                                    257 	.area RSEG    (ABS,DATA)
      000000                        258 	.org 0x0000
                           0000D0   259 _PSW	=	0x00d0
                           0000E0   260 _ACC	=	0x00e0
                           0000F0   261 _B	=	0x00f0
                           000081   262 _SP	=	0x0081
                           000082   263 _DPL	=	0x0082
                           000083   264 _DPH	=	0x0083
                           0000A1   265 _SAFE_MOD	=	0x00a1
                           0000B1   266 _GLOBAL_CFG	=	0x00b1
                           000087   267 _PCON	=	0x0087
                           0000B9   268 _CLOCK_CFG	=	0x00b9
                           0000A9   269 _WAKE_CTRL	=	0x00a9
                           0000FE   270 _RESET_KEEP	=	0x00fe
                           0000FF   271 _WDOG_COUNT	=	0x00ff
                           0000A8   272 _IE	=	0x00a8
                           0000B8   273 _IP	=	0x00b8
                           0000E8   274 _IE_EX	=	0x00e8
                           0000E9   275 _IP_EX	=	0x00e9
                           0000C7   276 _GPIO_IE	=	0x00c7
                           008584   277 _ROM_ADDR	=	0x8584
                           000084   278 _ROM_ADDR_L	=	0x0084
                           000085   279 _ROM_ADDR_H	=	0x0085
                           008F8E   280 _ROM_DATA	=	0x8f8e
                           00008E   281 _ROM_DATA_L	=	0x008e
                           00008F   282 _ROM_DATA_H	=	0x008f
                           000086   283 _ROM_CTRL	=	0x0086
                           000090   284 _P1	=	0x0090
                           000092   285 _P1_MOD_OC	=	0x0092
                           000093   286 _P1_DIR_PU	=	0x0093
                           0000A0   287 _P2	=	0x00a0
                           0000B0   288 _P3	=	0x00b0
                           000096   289 _P3_MOD_OC	=	0x0096
                           000097   290 _P3_DIR_PU	=	0x0097
                           0000C6   291 _PIN_FUNC	=	0x00c6
                           0000A2   292 _XBUS_AUX	=	0x00a2
                           000088   293 _TCON	=	0x0088
                           000089   294 _TMOD	=	0x0089
                           00008A   295 _TL0	=	0x008a
                           00008B   296 _TL1	=	0x008b
                           00008C   297 _TH0	=	0x008c
                           00008D   298 _TH1	=	0x008d
                           000098   299 _SCON	=	0x0098
                           000099   300 _SBUF	=	0x0099
                           0000C8   301 _T2CON	=	0x00c8
                           0000C9   302 _T2MOD	=	0x00c9
                           00CBCA   303 _RCAP2	=	0xcbca
                           0000CA   304 _RCAP2L	=	0x00ca
                           0000CB   305 _RCAP2H	=	0x00cb
                           00CDCC   306 _T2COUNT	=	0xcdcc
                           0000CC   307 _TL2	=	0x00cc
                           0000CD   308 _TH2	=	0x00cd
                           00CFCE   309 _T2CAP1	=	0xcfce
                           0000CE   310 _T2CAP1L	=	0x00ce
                           0000CF   311 _T2CAP1H	=	0x00cf
                           00009B   312 _PWM_DATA2	=	0x009b
                           00009C   313 _PWM_DATA1	=	0x009c
                           00009D   314 _PWM_CTRL	=	0x009d
                           00009E   315 _PWM_CK_SE	=	0x009e
                           0000F8   316 _SPI0_STAT	=	0x00f8
                           0000F9   317 _SPI0_DATA	=	0x00f9
                           0000FA   318 _SPI0_CTRL	=	0x00fa
                           0000FB   319 _SPI0_CK_SE	=	0x00fb
                           0000FC   320 _SPI0_SETUP	=	0x00fc
                           0000C0   321 _SCON1	=	0x00c0
                           0000C1   322 _SBUF1	=	0x00c1
                           0000C2   323 _SBAUD1	=	0x00c2
                           000080   324 _ADC_CTRL	=	0x0080
                           00009A   325 _ADC_CFG	=	0x009a
                           00009F   326 _ADC_DATA	=	0x009f
                           0000C3   327 _TKEY_CTRL	=	0x00c3
                           00C5C4   328 _TKEY_DAT	=	0xc5c4
                           0000C4   329 _TKEY_DATL	=	0x00c4
                           0000C5   330 _TKEY_DATH	=	0x00c5
                           000091   331 _USB_C_CTRL	=	0x0091
                           0000D1   332 _UDEV_CTRL	=	0x00d1
                           0000D2   333 _UEP1_CTRL	=	0x00d2
                           0000D3   334 _UEP1_T_LEN	=	0x00d3
                           0000D4   335 _UEP2_CTRL	=	0x00d4
                           0000D5   336 _UEP2_T_LEN	=	0x00d5
                           0000D6   337 _UEP3_CTRL	=	0x00d6
                           0000D7   338 _UEP3_T_LEN	=	0x00d7
                           0000D8   339 _USB_INT_FG	=	0x00d8
                           0000D9   340 _USB_INT_ST	=	0x00d9
                           0000DA   341 _USB_MIS_ST	=	0x00da
                           0000DB   342 _USB_RX_LEN	=	0x00db
                           0000DC   343 _UEP0_CTRL	=	0x00dc
                           0000DD   344 _UEP0_T_LEN	=	0x00dd
                           0000DE   345 _UEP4_CTRL	=	0x00de
                           0000DF   346 _UEP4_T_LEN	=	0x00df
                           0000E1   347 _USB_INT_EN	=	0x00e1
                           0000E2   348 _USB_CTRL	=	0x00e2
                           0000E3   349 _USB_DEV_AD	=	0x00e3
                           00E5E4   350 _UEP2_DMA	=	0xe5e4
                           0000E4   351 _UEP2_DMA_L	=	0x00e4
                           0000E5   352 _UEP2_DMA_H	=	0x00e5
                           00E7E6   353 _UEP3_DMA	=	0xe7e6
                           0000E6   354 _UEP3_DMA_L	=	0x00e6
                           0000E7   355 _UEP3_DMA_H	=	0x00e7
                           0000EA   356 _UEP4_1_MOD	=	0x00ea
                           0000EB   357 _UEP2_3_MOD	=	0x00eb
                           00EDEC   358 _UEP0_DMA	=	0xedec
                           0000EC   359 _UEP0_DMA_L	=	0x00ec
                           0000ED   360 _UEP0_DMA_H	=	0x00ed
                           00EFEE   361 _UEP1_DMA	=	0xefee
                           0000EE   362 _UEP1_DMA_L	=	0x00ee
                           0000EF   363 _UEP1_DMA_H	=	0x00ef
                                    364 ;--------------------------------------------------------
                                    365 ; special function bits
                                    366 ;--------------------------------------------------------
                                    367 	.area RSEG    (ABS,DATA)
      000000                        368 	.org 0x0000
                           0000D7   369 _CY	=	0x00d7
                           0000D6   370 _AC	=	0x00d6
                           0000D5   371 _F0	=	0x00d5
                           0000D4   372 _RS1	=	0x00d4
                           0000D3   373 _RS0	=	0x00d3
                           0000D2   374 _OV	=	0x00d2
                           0000D1   375 _F1	=	0x00d1
                           0000D0   376 _P	=	0x00d0
                           0000AF   377 _EA	=	0x00af
                           0000AE   378 _E_DIS	=	0x00ae
                           0000AD   379 _ET2	=	0x00ad
                           0000AC   380 _ES	=	0x00ac
                           0000AB   381 _ET1	=	0x00ab
                           0000AA   382 _EX1	=	0x00aa
                           0000A9   383 _ET0	=	0x00a9
                           0000A8   384 _EX0	=	0x00a8
                           0000BF   385 _PH_FLAG	=	0x00bf
                           0000BE   386 _PL_FLAG	=	0x00be
                           0000BD   387 _PT2	=	0x00bd
                           0000BC   388 _PS	=	0x00bc
                           0000BB   389 _PT1	=	0x00bb
                           0000BA   390 _PX1	=	0x00ba
                           0000B9   391 _PT0	=	0x00b9
                           0000B8   392 _PX0	=	0x00b8
                           0000EF   393 _IE_WDOG	=	0x00ef
                           0000EE   394 _IE_GPIO	=	0x00ee
                           0000ED   395 _IE_PWMX	=	0x00ed
                           0000EC   396 _IE_UART1	=	0x00ec
                           0000EB   397 _IE_ADC	=	0x00eb
                           0000EA   398 _IE_USB	=	0x00ea
                           0000E9   399 _IE_TKEY	=	0x00e9
                           0000E8   400 _IE_SPI0	=	0x00e8
                           000097   401 _SCK	=	0x0097
                           000097   402 _TXD1	=	0x0097
                           000097   403 _TIN5	=	0x0097
                           000096   404 _MISO	=	0x0096
                           000096   405 _RXD1	=	0x0096
                           000096   406 _TIN4	=	0x0096
                           000095   407 _MOSI	=	0x0095
                           000095   408 _PWM1	=	0x0095
                           000095   409 _TIN3	=	0x0095
                           000095   410 _UCC2	=	0x0095
                           000095   411 _AIN2	=	0x0095
                           000094   412 _T2_	=	0x0094
                           000094   413 _CAP1_	=	0x0094
                           000094   414 _SCS	=	0x0094
                           000094   415 _TIN2	=	0x0094
                           000094   416 _UCC1	=	0x0094
                           000094   417 _AIN1	=	0x0094
                           000093   418 _TXD_	=	0x0093
                           000092   419 _RXD_	=	0x0092
                           000091   420 _T2EX	=	0x0091
                           000091   421 _CAP2	=	0x0091
                           000091   422 _TIN1	=	0x0091
                           000091   423 _VBUS2	=	0x0091
                           000091   424 _AIN0	=	0x0091
                           000090   425 _T2	=	0x0090
                           000090   426 _CAP1	=	0x0090
                           000090   427 _TIN0	=	0x0090
                           0000B7   428 _UDM	=	0x00b7
                           0000B6   429 _UDP	=	0x00b6
                           0000B5   430 _T1	=	0x00b5
                           0000B4   431 _PWM2	=	0x00b4
                           0000B4   432 _RXD1_	=	0x00b4
                           0000B4   433 _T0	=	0x00b4
                           0000B3   434 _INT1	=	0x00b3
                           0000B2   435 _TXD1_	=	0x00b2
                           0000B2   436 _INT0	=	0x00b2
                           0000B2   437 _VBUS1	=	0x00b2
                           0000B2   438 _AIN3	=	0x00b2
                           0000B1   439 _PWM2_	=	0x00b1
                           0000B1   440 _TXD	=	0x00b1
                           0000B0   441 _PWM1_	=	0x00b0
                           0000B0   442 _RXD	=	0x00b0
                           00008F   443 _TF1	=	0x008f
                           00008E   444 _TR1	=	0x008e
                           00008D   445 _TF0	=	0x008d
                           00008C   446 _TR0	=	0x008c
                           00008B   447 _IE1	=	0x008b
                           00008A   448 _IT1	=	0x008a
                           000089   449 _IE0	=	0x0089
                           000088   450 _IT0	=	0x0088
                           00009F   451 _SM0	=	0x009f
                           00009E   452 _SM1	=	0x009e
                           00009D   453 _SM2	=	0x009d
                           00009C   454 _REN	=	0x009c
                           00009B   455 _TB8	=	0x009b
                           00009A   456 _RB8	=	0x009a
                           000099   457 _TI	=	0x0099
                           000098   458 _RI	=	0x0098
                           0000CF   459 _TF2	=	0x00cf
                           0000CF   460 _CAP1F	=	0x00cf
                           0000CE   461 _EXF2	=	0x00ce
                           0000CD   462 _RCLK	=	0x00cd
                           0000CC   463 _TCLK	=	0x00cc
                           0000CB   464 _EXEN2	=	0x00cb
                           0000CA   465 _TR2	=	0x00ca
                           0000C9   466 _C_T2	=	0x00c9
                           0000C8   467 _CP_RL2	=	0x00c8
                           0000FF   468 _S0_FST_ACT	=	0x00ff
                           0000FE   469 _S0_IF_OV	=	0x00fe
                           0000FD   470 _S0_IF_FIRST	=	0x00fd
                           0000FC   471 _S0_IF_BYTE	=	0x00fc
                           0000FB   472 _S0_FREE	=	0x00fb
                           0000FA   473 _S0_T_FIFO	=	0x00fa
                           0000F8   474 _S0_R_FIFO	=	0x00f8
                           0000C7   475 _U1SM0	=	0x00c7
                           0000C5   476 _U1SMOD	=	0x00c5
                           0000C4   477 _U1REN	=	0x00c4
                           0000C3   478 _U1TB8	=	0x00c3
                           0000C2   479 _U1RB8	=	0x00c2
                           0000C1   480 _U1TI	=	0x00c1
                           0000C0   481 _U1RI	=	0x00c0
                           000087   482 _CMPO	=	0x0087
                           000086   483 _CMP_IF	=	0x0086
                           000085   484 _ADC_IF	=	0x0085
                           000084   485 _ADC_START	=	0x0084
                           000083   486 _CMP_CHAN	=	0x0083
                           000081   487 _ADC_CHAN1	=	0x0081
                           000080   488 _ADC_CHAN0	=	0x0080
                           0000DF   489 _U_IS_NAK	=	0x00df
                           0000DE   490 _U_TOG_OK	=	0x00de
                           0000DD   491 _U_SIE_FREE	=	0x00dd
                           0000DC   492 _UIF_FIFO_OV	=	0x00dc
                           0000DB   493 _UIF_HST_SOF	=	0x00db
                           0000DA   494 _UIF_SUSPEND	=	0x00da
                           0000D9   495 _UIF_TRANSFER	=	0x00d9
                           0000D8   496 _UIF_DETECT	=	0x00d8
                           0000D8   497 _UIF_BUS_RST	=	0x00d8
                                    498 ;--------------------------------------------------------
                                    499 ; overlayable register banks
                                    500 ;--------------------------------------------------------
                                    501 	.area REG_BANK_0	(REL,OVR,DATA)
      000000                        502 	.ds 8
                                    503 ;--------------------------------------------------------
                                    504 ; internal ram data
                                    505 ;--------------------------------------------------------
                                    506 	.area DSEG    (DATA)
      000000                        507 __calib:
      000000                        508 	.ds 30
      00001E                        509 __state:
      00001E                        510 	.ds 1
      00001F                        511 __wait_start:
      00001F                        512 	.ds 2
      000021                        513 __t_fine:
      000021                        514 	.ds 4
                                    515 ;--------------------------------------------------------
                                    516 ; overlayable items in internal ram
                                    517 ;--------------------------------------------------------
                                    518 ;--------------------------------------------------------
                                    519 ; indirectly addressable internal ram data
                                    520 ;--------------------------------------------------------
                                    521 	.area ISEG    (DATA)
                                    522 ;--------------------------------------------------------
                                    523 ; absolute internal ram data
                                    524 ;--------------------------------------------------------
                                    525 	.area IABS    (ABS,DATA)
                                    526 	.area IABS    (ABS,DATA)
                                    527 ;--------------------------------------------------------
                                    528 ; bit data
                                    529 ;--------------------------------------------------------
                                    530 	.area BSEG    (BIT)
                                    531 ;--------------------------------------------------------
                                    532 ; paged external ram data
                                    533 ;--------------------------------------------------------
                                    534 	.area PSEG    (PAG,XDATA)
                                    535 ;--------------------------------------------------------
                                    536 ; uninitialized external ram data
                                    537 ;--------------------------------------------------------
                                    538 	.area XSEG    (XDATA)
                                    539 ;--------------------------------------------------------
                                    540 ; absolute external ram data
                                    541 ;--------------------------------------------------------
                                    542 	.area XABS    (ABS,XDATA)
                                    543 ;--------------------------------------------------------
                                    544 ; initialized external ram data
                                    545 ;--------------------------------------------------------
                                    546 	.area XISEG   (XDATA)
                                    547 	.area HOME    (CODE)
                                    548 	.area GSINIT0 (CODE)
                                    549 	.area GSINIT1 (CODE)
                                    550 	.area GSINIT2 (CODE)
                                    551 	.area GSINIT3 (CODE)
                                    552 	.area GSINIT4 (CODE)
                                    553 	.area GSINIT5 (CODE)
                                    554 	.area GSINIT  (CODE)
                                    555 	.area GSFINAL (CODE)
                                    556 	.area CSEG    (CODE)
                                    557 ;--------------------------------------------------------
                                    558 ; global & static initialisations
                                    559 ;--------------------------------------------------------
                                    560 	.area HOME    (CODE)
                                    561 	.area GSINIT  (CODE)
                                    562 	.area GSFINAL (CODE)
                                    563 	.area GSINIT  (CODE)
                                    564 ;	C:\Users\Clovisf\Documents\ch552\bme680\BME680.c:13: static BME680_State  _state      = BME680_STATE_IDLE;
      000000 75*1E 00         [24]  565 	mov	__state,#0x00
                                    566 ;	C:\Users\Clovisf\Documents\ch552\bme680\BME680.c:14: static unsigned int  _wait_start = 0;
      000003 E4               [12]  567 	clr	a
      000004 F5*1F            [12]  568 	mov	__wait_start,a
      000006 F5*20            [12]  569 	mov	(__wait_start + 1),a
                                    570 ;	C:\Users\Clovisf\Documents\ch552\bme680\BME680.c:16: static int32_t _t_fine = 0;
      000008 F5*21            [12]  571 	mov	__t_fine,a
      00000A F5*22            [12]  572 	mov	(__t_fine + 1),a
      00000C F5*23            [12]  573 	mov	(__t_fine + 2),a
      00000E F5*24            [12]  574 	mov	(__t_fine + 3),a
                                    575 ;--------------------------------------------------------
                                    576 ; Home
                                    577 ;--------------------------------------------------------
                                    578 	.area HOME    (CODE)
                                    579 	.area HOME    (CODE)
                                    580 ;--------------------------------------------------------
                                    581 ; code
                                    582 ;--------------------------------------------------------
                                    583 	.area CSEG    (CODE)
                                    584 ;------------------------------------------------------------
                                    585 ;Allocation info for local variables in function 'spi_init'
                                    586 ;------------------------------------------------------------
                                    587 ;i             Allocated to stack - _bp +1 +4 
                                    588 ;------------------------------------------------------------
                                    589 ;	C:\Users\Clovisf\Documents\ch552\bme680\BME680.c:20: void spi_init(void) {
                                    590 ;	-----------------------------------------
                                    591 ;	 function spi_init
                                    592 ;	-----------------------------------------
      000000                        593 _spi_init:
                           000007   594 	ar7 = 0x07
                           000006   595 	ar6 = 0x06
                           000005   596 	ar5 = 0x05
                           000004   597 	ar4 = 0x04
                           000003   598 	ar3 = 0x03
                           000002   599 	ar2 = 0x02
                           000001   600 	ar1 = 0x01
                           000000   601 	ar0 = 0x00
      000000 C0*00            [24]  602 	push	_bp
      000002 E5 81            [12]  603 	mov	a,sp
      000004 F5*00            [12]  604 	mov	_bp,a
      000006 24 04            [12]  605 	add	a,#0x04
      000008 F5 81            [12]  606 	mov	sp,a
                                    607 ;	C:\Users\Clovisf\Documents\ch552\bme680\BME680.c:22: P1_MOD_OC &= ~((1 << 5) | (1 << 7));
      00000A 53 92 5F         [24]  608 	anl	_P1_MOD_OC,#0x5f
                                    609 ;	C:\Users\Clovisf\Documents\ch552\bme680\BME680.c:23: P1_DIR_PU  |=  (1 << 5) | (1 << 7);
      00000D 43 93 A0         [24]  610 	orl	_P1_DIR_PU,#0xa0
                                    611 ;	C:\Users\Clovisf\Documents\ch552\bme680\BME680.c:26: P1_MOD_OC &= ~(1 << 6);
      000010 53 92 BF         [24]  612 	anl	_P1_MOD_OC,#0xbf
                                    613 ;	C:\Users\Clovisf\Documents\ch552\bme680\BME680.c:27: P1_DIR_PU  &= ~(1 << 6);
      000013 53 93 BF         [24]  614 	anl	_P1_DIR_PU,#0xbf
                                    615 ;	C:\Users\Clovisf\Documents\ch552\bme680\BME680.c:30: SPI0_CTRL = bS0_CLR_ALL;
      000016 75 FA 02         [24]  616 	mov	_SPI0_CTRL,#0x02
                                    617 ;	C:\Users\Clovisf\Documents\ch552\bme680\BME680.c:33: for (i = 0; i < 100UL; i++) { __asm nop __endasm; }
      000019 A8*00            [24]  618 	mov	r0,_bp
      00001B 08               [12]  619 	inc	r0
      00001C E4               [12]  620 	clr	a
      00001D F6               [12]  621 	mov	@r0,a
      00001E 08               [12]  622 	inc	r0
      00001F F6               [12]  623 	mov	@r0,a
      000020 08               [12]  624 	inc	r0
      000021 F6               [12]  625 	mov	@r0,a
      000022 08               [12]  626 	inc	r0
      000023 F6               [12]  627 	mov	@r0,a
      000024                        628 00103$:
      000024 A8*00            [24]  629 	mov	r0,_bp
      000026 08               [12]  630 	inc	r0
      000027 C3               [12]  631 	clr	c
      000028 E6               [12]  632 	mov	a,@r0
      000029 94 64            [12]  633 	subb	a,#0x64
      00002B 08               [12]  634 	inc	r0
      00002C E6               [12]  635 	mov	a,@r0
      00002D 94 00            [12]  636 	subb	a,#0x00
      00002F 08               [12]  637 	inc	r0
      000030 E6               [12]  638 	mov	a,@r0
      000031 94 00            [12]  639 	subb	a,#0x00
      000033 08               [12]  640 	inc	r0
      000034 E6               [12]  641 	mov	a,@r0
      000035 94 00            [12]  642 	subb	a,#0x00
      000037 50 24            [24]  643 	jnc	00101$
      000039 00               [12]  644 	nop	
      00003A A8*00            [24]  645 	mov	r0,_bp
      00003C 08               [12]  646 	inc	r0
      00003D 86 04            [24]  647 	mov	ar4,@r0
      00003F 08               [12]  648 	inc	r0
      000040 86 05            [24]  649 	mov	ar5,@r0
      000042 08               [12]  650 	inc	r0
      000043 86 06            [24]  651 	mov	ar6,@r0
      000045 08               [12]  652 	inc	r0
      000046 86 07            [24]  653 	mov	ar7,@r0
      000048 A8*00            [24]  654 	mov	r0,_bp
      00004A 08               [12]  655 	inc	r0
      00004B 74 01            [12]  656 	mov	a,#0x01
      00004D 2C               [12]  657 	add	a, r4
      00004E F6               [12]  658 	mov	@r0,a
      00004F E4               [12]  659 	clr	a
      000050 3D               [12]  660 	addc	a, r5
      000051 08               [12]  661 	inc	r0
      000052 F6               [12]  662 	mov	@r0,a
      000053 E4               [12]  663 	clr	a
      000054 3E               [12]  664 	addc	a, r6
      000055 08               [12]  665 	inc	r0
      000056 F6               [12]  666 	mov	@r0,a
      000057 E4               [12]  667 	clr	a
      000058 3F               [12]  668 	addc	a, r7
      000059 08               [12]  669 	inc	r0
      00005A F6               [12]  670 	mov	@r0,a
      00005B 80 C7            [24]  671 	sjmp	00103$
      00005D                        672 00101$:
                                    673 ;	C:\Users\Clovisf\Documents\ch552\bme680\BME680.c:37: SPI0_CTRL = bS0_MOSI_OE | bS0_SCK_OE;
      00005D 75 FA 60         [24]  674 	mov	_SPI0_CTRL,#0x60
                                    675 ;	C:\Users\Clovisf\Documents\ch552\bme680\BME680.c:39: SPI0_CTRL &= ~bS0_DATA_DIR;
      000060 53 FA EF         [24]  676 	anl	_SPI0_CTRL,#0xef
                                    677 ;	C:\Users\Clovisf\Documents\ch552\bme680\BME680.c:42: SPI0_SETUP = 0x00;
      000063 75 FC 00         [24]  678 	mov	_SPI0_SETUP,#0x00
                                    679 ;	C:\Users\Clovisf\Documents\ch552\bme680\BME680.c:46: SPI0_CK_SE = 0x20;
      000066 75 FB 20         [24]  680 	mov	_SPI0_CK_SE,#0x20
                                    681 ;	C:\Users\Clovisf\Documents\ch552\bme680\BME680.c:47: }
      000069 85*00 81         [24]  682 	mov	sp,_bp
      00006C D0*00            [24]  683 	pop	_bp
      00006E 22               [24]  684 	ret
                                    685 ;------------------------------------------------------------
                                    686 ;Allocation info for local variables in function 'spi_write_byte'
                                    687 ;------------------------------------------------------------
                                    688 ;tx            Allocated to registers r7 
                                    689 ;------------------------------------------------------------
                                    690 ;	C:\Users\Clovisf\Documents\ch552\bme680\BME680.c:52: static void spi_write_byte(uint8_t tx) {
                                    691 ;	-----------------------------------------
                                    692 ;	 function spi_write_byte
                                    693 ;	-----------------------------------------
      00006F                        694 _spi_write_byte:
      00006F AF 82            [24]  695 	mov	r7, dpl
                                    696 ;	C:\Users\Clovisf\Documents\ch552\bme680\BME680.c:53: SPI0_CTRL &= ~bS0_DATA_DIR;   // direction = OUT
      000071 53 FA EF         [24]  697 	anl	_SPI0_CTRL,#0xef
                                    698 ;	C:\Users\Clovisf\Documents\ch552\bme680\BME680.c:54: SPI0_DATA = tx;
      000074 8F F9            [24]  699 	mov	_SPI0_DATA,r7
                                    700 ;	C:\Users\Clovisf\Documents\ch552\bme680\BME680.c:55: while (!S0_IF_BYTE);
      000076                        701 00101$:
      000076 30 FC FD         [24]  702 	jnb	_S0_IF_BYTE,00101$
                                    703 ;	C:\Users\Clovisf\Documents\ch552\bme680\BME680.c:56: S0_IF_BYTE = 1;
                                    704 ;	assignBit
      000079 D2 FC            [12]  705 	setb	_S0_IF_BYTE
                                    706 ;	C:\Users\Clovisf\Documents\ch552\bme680\BME680.c:57: }
      00007B 22               [24]  707 	ret
                                    708 ;------------------------------------------------------------
                                    709 ;Allocation info for local variables in function 'spi_read_byte'
                                    710 ;------------------------------------------------------------
                                    711 ;	C:\Users\Clovisf\Documents\ch552\bme680\BME680.c:60: static uint8_t spi_read_byte(void) {
                                    712 ;	-----------------------------------------
                                    713 ;	 function spi_read_byte
                                    714 ;	-----------------------------------------
      00007C                        715 _spi_read_byte:
                                    716 ;	C:\Users\Clovisf\Documents\ch552\bme680\BME680.c:61: SPI0_CTRL |= bS0_DATA_DIR;    // direction = IN
      00007C 43 FA 10         [24]  717 	orl	_SPI0_CTRL,#0x10
                                    718 ;	C:\Users\Clovisf\Documents\ch552\bme680\BME680.c:62: SPI0_DATA = 0xFF;
      00007F 75 F9 FF         [24]  719 	mov	_SPI0_DATA,#0xff
                                    720 ;	C:\Users\Clovisf\Documents\ch552\bme680\BME680.c:63: while (!S0_IF_BYTE);
      000082                        721 00101$:
      000082 30 FC FD         [24]  722 	jnb	_S0_IF_BYTE,00101$
                                    723 ;	C:\Users\Clovisf\Documents\ch552\bme680\BME680.c:64: S0_IF_BYTE = 1;
                                    724 ;	assignBit
      000085 D2 FC            [12]  725 	setb	_S0_IF_BYTE
                                    726 ;	C:\Users\Clovisf\Documents\ch552\bme680\BME680.c:65: return SPI0_DATA;
      000087 85 F9 82         [24]  727 	mov	dpl, _SPI0_DATA
                                    728 ;	C:\Users\Clovisf\Documents\ch552\bme680\BME680.c:66: }
      00008A 22               [24]  729 	ret
                                    730 ;------------------------------------------------------------
                                    731 ;Allocation info for local variables in function 'reg_read'
                                    732 ;------------------------------------------------------------
                                    733 ;reg           Allocated to registers r7 
                                    734 ;------------------------------------------------------------
                                    735 ;	C:\Users\Clovisf\Documents\ch552\bme680\BME680.c:72: uint8_t reg_read(uint8_t reg) {
                                    736 ;	-----------------------------------------
                                    737 ;	 function reg_read
                                    738 ;	-----------------------------------------
      00008B                        739 _reg_read:
      00008B AF 82            [24]  740 	mov	r7, dpl
                                    741 ;	C:\Users\Clovisf\Documents\ch552\bme680\BME680.c:73: spi_write_byte(reg & 0x7F);   // READ: bit7 = 0
      00008D 53 07 7F         [24]  742 	anl	ar7,#0x7f
      000090 8F 82            [24]  743 	mov	dpl, r7
      000092 12r00r6F         [24]  744 	lcall	_spi_write_byte
                                    745 ;	C:\Users\Clovisf\Documents\ch552\bme680\BME680.c:74: spi_read_byte();              // dummy to align timing
      000095 12r00r7C         [24]  746 	lcall	_spi_read_byte
                                    747 ;	C:\Users\Clovisf\Documents\ch552\bme680\BME680.c:75: return spi_read_byte();       // actual data
                                    748 ;	C:\Users\Clovisf\Documents\ch552\bme680\BME680.c:76: }
      000098 02r00r7C         [24]  749 	ljmp	_spi_read_byte
                                    750 ;------------------------------------------------------------
                                    751 ;Allocation info for local variables in function 'reg_write'
                                    752 ;------------------------------------------------------------
                                    753 ;val           Allocated to stack - _bp -3 +1 
                                    754 ;reg           Allocated to registers r7 
                                    755 ;------------------------------------------------------------
                                    756 ;	C:\Users\Clovisf\Documents\ch552\bme680\BME680.c:78: void reg_write(uint8_t reg, uint8_t val) {
                                    757 ;	-----------------------------------------
                                    758 ;	 function reg_write
                                    759 ;	-----------------------------------------
      00009B                        760 _reg_write:
      00009B C0*00            [24]  761 	push	_bp
      00009D 85 81*00         [24]  762 	mov	_bp,sp
      0000A0 AF 82            [24]  763 	mov	r7, dpl
                                    764 ;	C:\Users\Clovisf\Documents\ch552\bme680\BME680.c:79: spi_write_byte(reg | 0x80);   // WRITE: bit7 = 1
      0000A2 74 80            [12]  765 	mov	a,#0x80
      0000A4 4F               [12]  766 	orl	a,r7
      0000A5 F5 82            [12]  767 	mov	dpl,a
      0000A7 12r00r6F         [24]  768 	lcall	_spi_write_byte
                                    769 ;	C:\Users\Clovisf\Documents\ch552\bme680\BME680.c:80: spi_write_byte(val);
      0000AA E5*00            [12]  770 	mov	a,_bp
      0000AC 24 FD            [12]  771 	add	a,#0xfd
      0000AE F8               [12]  772 	mov	r0,a
      0000AF 86 82            [24]  773 	mov	dpl, @r0
      0000B1 12r00r6F         [24]  774 	lcall	_spi_write_byte
                                    775 ;	C:\Users\Clovisf\Documents\ch552\bme680\BME680.c:81: }
      0000B4 D0*00            [24]  776 	pop	_bp
      0000B6 22               [24]  777 	ret
                                    778 ;------------------------------------------------------------
                                    779 ;Allocation info for local variables in function 'reg_read_burst'
                                    780 ;------------------------------------------------------------
                                    781 ;buf           Allocated to stack - _bp -5 +3 
                                    782 ;len           Allocated to stack - _bp -6 +1 
                                    783 ;reg           Allocated to registers r7 
                                    784 ;i             Allocated to registers r7 
                                    785 ;------------------------------------------------------------
                                    786 ;	C:\Users\Clovisf\Documents\ch552\bme680\BME680.c:83: static void reg_read_burst(uint8_t reg, uint8_t *buf, uint8_t len) {
                                    787 ;	-----------------------------------------
                                    788 ;	 function reg_read_burst
                                    789 ;	-----------------------------------------
      0000B7                        790 _reg_read_burst:
      0000B7 C0*00            [24]  791 	push	_bp
      0000B9 85 81*00         [24]  792 	mov	_bp,sp
      0000BC AF 82            [24]  793 	mov	r7, dpl
                                    794 ;	C:\Users\Clovisf\Documents\ch552\bme680\BME680.c:85: spi_write_byte(reg & 0x7F);   // READ: bit7 = 0
      0000BE 53 07 7F         [24]  795 	anl	ar7,#0x7f
      0000C1 8F 82            [24]  796 	mov	dpl, r7
      0000C3 12r00r6F         [24]  797 	lcall	_spi_write_byte
                                    798 ;	C:\Users\Clovisf\Documents\ch552\bme680\BME680.c:86: spi_read_byte();              // dummy
      0000C6 12r00r7C         [24]  799 	lcall	_spi_read_byte
                                    800 ;	C:\Users\Clovisf\Documents\ch552\bme680\BME680.c:87: for (i = 0; i < len; i++) {
      0000C9 7F 00            [12]  801 	mov	r7,#0x00
      0000CB                        802 00103$:
      0000CB E5*00            [12]  803 	mov	a,_bp
      0000CD 24 FA            [12]  804 	add	a,#0xfa
      0000CF F8               [12]  805 	mov	r0,a
      0000D0 C3               [12]  806 	clr	c
      0000D1 EF               [12]  807 	mov	a,r7
      0000D2 96               [12]  808 	subb	a,@r0
      0000D3 50 31            [24]  809 	jnc	00105$
                                    810 ;	C:\Users\Clovisf\Documents\ch552\bme680\BME680.c:88: buf[i] = spi_read_byte();
      0000D5 E5*00            [12]  811 	mov	a,_bp
      0000D7 24 FB            [12]  812 	add	a,#0xfb
      0000D9 F8               [12]  813 	mov	r0,a
      0000DA EF               [12]  814 	mov	a,r7
      0000DB 26               [12]  815 	add	a, @r0
      0000DC FC               [12]  816 	mov	r4,a
      0000DD E4               [12]  817 	clr	a
      0000DE 08               [12]  818 	inc	r0
      0000DF 36               [12]  819 	addc	a, @r0
      0000E0 FD               [12]  820 	mov	r5,a
      0000E1 08               [12]  821 	inc	r0
      0000E2 86 06            [24]  822 	mov	ar6,@r0
      0000E4 C0 07            [24]  823 	push	ar7
      0000E6 C0 06            [24]  824 	push	ar6
      0000E8 C0 05            [24]  825 	push	ar5
      0000EA C0 04            [24]  826 	push	ar4
      0000EC 12r00r7C         [24]  827 	lcall	_spi_read_byte
      0000EF AB 82            [24]  828 	mov	r3, dpl
      0000F1 D0 04            [24]  829 	pop	ar4
      0000F3 D0 05            [24]  830 	pop	ar5
      0000F5 D0 06            [24]  831 	pop	ar6
      0000F7 D0 07            [24]  832 	pop	ar7
      0000F9 8C 82            [24]  833 	mov	dpl,r4
      0000FB 8D 83            [24]  834 	mov	dph,r5
      0000FD 8E F0            [24]  835 	mov	b,r6
      0000FF EB               [12]  836 	mov	a,r3
      000100 12r00r00         [24]  837 	lcall	__gptrput
                                    838 ;	C:\Users\Clovisf\Documents\ch552\bme680\BME680.c:87: for (i = 0; i < len; i++) {
      000103 0F               [12]  839 	inc	r7
      000104 80 C5            [24]  840 	sjmp	00103$
      000106                        841 00105$:
                                    842 ;	C:\Users\Clovisf\Documents\ch552\bme680\BME680.c:90: }
      000106 D0*00            [24]  843 	pop	_bp
      000108 22               [24]  844 	ret
                                    845 ;------------------------------------------------------------
                                    846 ;Allocation info for local variables in function 'load_calibration'
                                    847 ;------------------------------------------------------------
                                    848 ;buf           Allocated to stack - _bp +1 +2 
                                    849 ;h1_lsb_h2_lsb Allocated to registers r7 
                                    850 ;------------------------------------------------------------
                                    851 ;	C:\Users\Clovisf\Documents\ch552\bme680\BME680.c:94: static void load_calibration(void) {
                                    852 ;	-----------------------------------------
                                    853 ;	 function load_calibration
                                    854 ;	-----------------------------------------
      000109                        855 _load_calibration:
      000109 C0*00            [24]  856 	push	_bp
      00010B 85 81*00         [24]  857 	mov	_bp,sp
      00010E 05 81            [12]  858 	inc	sp
      000110 05 81            [12]  859 	inc	sp
                                    860 ;	C:\Users\Clovisf\Documents\ch552\bme680\BME680.c:98: buf[0] = reg_read(BME680_REG_CALIB_T1_LSB);
      000112 A9*00            [24]  861 	mov	r1,_bp
      000114 09               [12]  862 	inc	r1
      000115 75 82 E9         [24]  863 	mov	dpl, #0xe9
      000118 C0 01            [24]  864 	push	ar1
      00011A 12r00r8B         [24]  865 	lcall	_reg_read
      00011D E5 82            [12]  866 	mov	a, dpl
      00011F D0 01            [24]  867 	pop	ar1
      000121 F7               [12]  868 	mov	@r1,a
                                    869 ;	C:\Users\Clovisf\Documents\ch552\bme680\BME680.c:99: buf[1] = reg_read(BME680_REG_CALIB_T1_MSB);
      000122 E9               [12]  870 	mov	a,r1
      000123 04               [12]  871 	inc	a
      000124 F8               [12]  872 	mov	r0,a
      000125 75 82 EA         [24]  873 	mov	dpl, #0xea
      000128 C0 01            [24]  874 	push	ar1
      00012A C0 00            [24]  875 	push	ar0
      00012C 12r00r8B         [24]  876 	lcall	_reg_read
      00012F AF 82            [24]  877 	mov	r7, dpl
      000131 D0 00            [24]  878 	pop	ar0
      000133 D0 01            [24]  879 	pop	ar1
      000135 A6 07            [24]  880 	mov	@r0,ar7
                                    881 ;	C:\Users\Clovisf\Documents\ch552\bme680\BME680.c:100: _calib.T1 = (uint16_t)((buf[1] << 8) | buf[0]);
      000137 8F 06            [24]  882 	mov	ar6,r7
      000139 7F 00            [12]  883 	mov	r7,#0x00
      00013B 87 05            [24]  884 	mov	ar5,@r1
      00013D 7C 00            [12]  885 	mov	r4,#0x00
      00013F ED               [12]  886 	mov	a,r5
      000140 42 07            [12]  887 	orl	ar7,a
      000142 EC               [12]  888 	mov	a,r4
      000143 42 06            [12]  889 	orl	ar6,a
      000145 8F*00            [24]  890 	mov	(__calib + 0),r7
      000147 8E*01            [24]  891 	mov	(__calib + 1),r6
                                    892 ;	C:\Users\Clovisf\Documents\ch552\bme680\BME680.c:102: buf[0] = reg_read(BME680_REG_CALIB_T2_LSB);
      000149 75 82 8A         [24]  893 	mov	dpl, #0x8a
      00014C C0 01            [24]  894 	push	ar1
      00014E C0 00            [24]  895 	push	ar0
      000150 12r00r8B         [24]  896 	lcall	_reg_read
      000153 E5 82            [12]  897 	mov	a, dpl
      000155 D0 00            [24]  898 	pop	ar0
      000157 D0 01            [24]  899 	pop	ar1
      000159 F7               [12]  900 	mov	@r1,a
                                    901 ;	C:\Users\Clovisf\Documents\ch552\bme680\BME680.c:103: buf[1] = reg_read(BME680_REG_CALIB_T2_MSB);
      00015A 75 82 8B         [24]  902 	mov	dpl, #0x8b
      00015D C0 01            [24]  903 	push	ar1
      00015F C0 00            [24]  904 	push	ar0
      000161 12r00r8B         [24]  905 	lcall	_reg_read
      000164 AF 82            [24]  906 	mov	r7, dpl
      000166 D0 00            [24]  907 	pop	ar0
      000168 D0 01            [24]  908 	pop	ar1
      00016A A6 07            [24]  909 	mov	@r0,ar7
                                    910 ;	C:\Users\Clovisf\Documents\ch552\bme680\BME680.c:104: _calib.T2 = (int16_t)((buf[1] << 8) | buf[0]);
      00016C 8F 06            [24]  911 	mov	ar6,r7
      00016E 7F 00            [12]  912 	mov	r7,#0x00
      000170 87 05            [24]  913 	mov	ar5,@r1
      000172 7C 00            [12]  914 	mov	r4,#0x00
      000174 ED               [12]  915 	mov	a,r5
      000175 42 07            [12]  916 	orl	ar7,a
      000177 EC               [12]  917 	mov	a,r4
      000178 42 06            [12]  918 	orl	ar6,a
      00017A 8F*02            [24]  919 	mov	((__calib + 0x0002) + 0),r7
      00017C 8E*03            [24]  920 	mov	((__calib + 0x0002) + 1),r6
                                    921 ;	C:\Users\Clovisf\Documents\ch552\bme680\BME680.c:106: _calib.T3 = (int8_t)reg_read(BME680_REG_CALIB_T3);
      00017E 75 82 8C         [24]  922 	mov	dpl, #0x8c
      000181 C0 01            [24]  923 	push	ar1
      000183 C0 00            [24]  924 	push	ar0
      000185 12r00r8B         [24]  925 	lcall	_reg_read
      000188 AF 82            [24]  926 	mov	r7, dpl
      00018A 8F*04            [24]  927 	mov	(__calib + 0x0004),r7
                                    928 ;	C:\Users\Clovisf\Documents\ch552\bme680\BME680.c:109: buf[0] = reg_read(BME680_REG_CALIB_P1_LSB);
      00018C 75 82 8E         [24]  929 	mov	dpl, #0x8e
      00018F 12r00r8B         [24]  930 	lcall	_reg_read
      000192 E5 82            [12]  931 	mov	a, dpl
      000194 D0 00            [24]  932 	pop	ar0
      000196 D0 01            [24]  933 	pop	ar1
      000198 F7               [12]  934 	mov	@r1,a
                                    935 ;	C:\Users\Clovisf\Documents\ch552\bme680\BME680.c:110: buf[1] = reg_read(BME680_REG_CALIB_P1_MSB);
      000199 75 82 8F         [24]  936 	mov	dpl, #0x8f
      00019C C0 01            [24]  937 	push	ar1
      00019E C0 00            [24]  938 	push	ar0
      0001A0 12r00r8B         [24]  939 	lcall	_reg_read
      0001A3 AF 82            [24]  940 	mov	r7, dpl
      0001A5 D0 00            [24]  941 	pop	ar0
      0001A7 D0 01            [24]  942 	pop	ar1
      0001A9 A6 07            [24]  943 	mov	@r0,ar7
                                    944 ;	C:\Users\Clovisf\Documents\ch552\bme680\BME680.c:111: _calib.P1 = (uint16_t)((buf[1] << 8) | buf[0]);
      0001AB 8F 06            [24]  945 	mov	ar6,r7
      0001AD 7F 00            [12]  946 	mov	r7,#0x00
      0001AF 87 05            [24]  947 	mov	ar5,@r1
      0001B1 7C 00            [12]  948 	mov	r4,#0x00
      0001B3 ED               [12]  949 	mov	a,r5
      0001B4 42 07            [12]  950 	orl	ar7,a
      0001B6 EC               [12]  951 	mov	a,r4
      0001B7 42 06            [12]  952 	orl	ar6,a
      0001B9 8F*05            [24]  953 	mov	((__calib + 0x0005) + 0),r7
      0001BB 8E*06            [24]  954 	mov	((__calib + 0x0005) + 1),r6
                                    955 ;	C:\Users\Clovisf\Documents\ch552\bme680\BME680.c:113: buf[0] = reg_read(BME680_REG_CALIB_P2_LSB);
      0001BD 75 82 90         [24]  956 	mov	dpl, #0x90
      0001C0 C0 01            [24]  957 	push	ar1
      0001C2 C0 00            [24]  958 	push	ar0
      0001C4 12r00r8B         [24]  959 	lcall	_reg_read
      0001C7 E5 82            [12]  960 	mov	a, dpl
      0001C9 D0 00            [24]  961 	pop	ar0
      0001CB D0 01            [24]  962 	pop	ar1
      0001CD F7               [12]  963 	mov	@r1,a
                                    964 ;	C:\Users\Clovisf\Documents\ch552\bme680\BME680.c:114: buf[1] = reg_read(BME680_REG_CALIB_P2_MSB);
      0001CE 75 82 91         [24]  965 	mov	dpl, #0x91
      0001D1 C0 01            [24]  966 	push	ar1
      0001D3 C0 00            [24]  967 	push	ar0
      0001D5 12r00r8B         [24]  968 	lcall	_reg_read
      0001D8 AF 82            [24]  969 	mov	r7, dpl
      0001DA D0 00            [24]  970 	pop	ar0
      0001DC D0 01            [24]  971 	pop	ar1
      0001DE A6 07            [24]  972 	mov	@r0,ar7
                                    973 ;	C:\Users\Clovisf\Documents\ch552\bme680\BME680.c:115: _calib.P2 = (int16_t)((buf[1] << 8) | buf[0]);
      0001E0 8F 06            [24]  974 	mov	ar6,r7
      0001E2 7F 00            [12]  975 	mov	r7,#0x00
      0001E4 87 05            [24]  976 	mov	ar5,@r1
      0001E6 7C 00            [12]  977 	mov	r4,#0x00
      0001E8 ED               [12]  978 	mov	a,r5
      0001E9 42 07            [12]  979 	orl	ar7,a
      0001EB EC               [12]  980 	mov	a,r4
      0001EC 42 06            [12]  981 	orl	ar6,a
      0001EE 8F*07            [24]  982 	mov	((__calib + 0x0007) + 0),r7
      0001F0 8E*08            [24]  983 	mov	((__calib + 0x0007) + 1),r6
                                    984 ;	C:\Users\Clovisf\Documents\ch552\bme680\BME680.c:117: _calib.P3  = (int8_t)reg_read(BME680_REG_CALIB_P3);
      0001F2 75 82 92         [24]  985 	mov	dpl, #0x92
      0001F5 C0 01            [24]  986 	push	ar1
      0001F7 C0 00            [24]  987 	push	ar0
      0001F9 12r00r8B         [24]  988 	lcall	_reg_read
      0001FC AF 82            [24]  989 	mov	r7, dpl
      0001FE 8F*09            [24]  990 	mov	(__calib + 0x0009),r7
                                    991 ;	C:\Users\Clovisf\Documents\ch552\bme680\BME680.c:119: buf[0] = reg_read(BME680_REG_CALIB_P4_LSB);
      000200 75 82 94         [24]  992 	mov	dpl, #0x94
      000203 12r00r8B         [24]  993 	lcall	_reg_read
      000206 E5 82            [12]  994 	mov	a, dpl
      000208 D0 00            [24]  995 	pop	ar0
      00020A D0 01            [24]  996 	pop	ar1
      00020C F7               [12]  997 	mov	@r1,a
                                    998 ;	C:\Users\Clovisf\Documents\ch552\bme680\BME680.c:120: buf[1] = reg_read(BME680_REG_CALIB_P4_MSB);
      00020D 75 82 95         [24]  999 	mov	dpl, #0x95
      000210 C0 01            [24] 1000 	push	ar1
      000212 C0 00            [24] 1001 	push	ar0
      000214 12r00r8B         [24] 1002 	lcall	_reg_read
      000217 AF 82            [24] 1003 	mov	r7, dpl
      000219 D0 00            [24] 1004 	pop	ar0
      00021B D0 01            [24] 1005 	pop	ar1
      00021D A6 07            [24] 1006 	mov	@r0,ar7
                                   1007 ;	C:\Users\Clovisf\Documents\ch552\bme680\BME680.c:121: _calib.P4 = (int16_t)((buf[1] << 8) | buf[0]);
      00021F 8F 06            [24] 1008 	mov	ar6,r7
      000221 7F 00            [12] 1009 	mov	r7,#0x00
      000223 87 05            [24] 1010 	mov	ar5,@r1
      000225 7C 00            [12] 1011 	mov	r4,#0x00
      000227 ED               [12] 1012 	mov	a,r5
      000228 42 07            [12] 1013 	orl	ar7,a
      00022A EC               [12] 1014 	mov	a,r4
      00022B 42 06            [12] 1015 	orl	ar6,a
      00022D 8F*0A            [24] 1016 	mov	((__calib + 0x000a) + 0),r7
      00022F 8E*0B            [24] 1017 	mov	((__calib + 0x000a) + 1),r6
                                   1018 ;	C:\Users\Clovisf\Documents\ch552\bme680\BME680.c:123: buf[0] = reg_read(BME680_REG_CALIB_P5_LSB);
      000231 75 82 96         [24] 1019 	mov	dpl, #0x96
      000234 C0 01            [24] 1020 	push	ar1
      000236 C0 00            [24] 1021 	push	ar0
      000238 12r00r8B         [24] 1022 	lcall	_reg_read
      00023B E5 82            [12] 1023 	mov	a, dpl
      00023D D0 00            [24] 1024 	pop	ar0
      00023F D0 01            [24] 1025 	pop	ar1
      000241 F7               [12] 1026 	mov	@r1,a
                                   1027 ;	C:\Users\Clovisf\Documents\ch552\bme680\BME680.c:124: buf[1] = reg_read(BME680_REG_CALIB_P5_MSB);
      000242 75 82 97         [24] 1028 	mov	dpl, #0x97
      000245 C0 01            [24] 1029 	push	ar1
      000247 C0 00            [24] 1030 	push	ar0
      000249 12r00r8B         [24] 1031 	lcall	_reg_read
      00024C AF 82            [24] 1032 	mov	r7, dpl
      00024E D0 00            [24] 1033 	pop	ar0
      000250 D0 01            [24] 1034 	pop	ar1
      000252 A6 07            [24] 1035 	mov	@r0,ar7
                                   1036 ;	C:\Users\Clovisf\Documents\ch552\bme680\BME680.c:125: _calib.P5 = (int16_t)((buf[1] << 8) | buf[0]);
      000254 8F 06            [24] 1037 	mov	ar6,r7
      000256 7F 00            [12] 1038 	mov	r7,#0x00
      000258 87 05            [24] 1039 	mov	ar5,@r1
      00025A 7C 00            [12] 1040 	mov	r4,#0x00
      00025C ED               [12] 1041 	mov	a,r5
      00025D 42 07            [12] 1042 	orl	ar7,a
      00025F EC               [12] 1043 	mov	a,r4
      000260 42 06            [12] 1044 	orl	ar6,a
      000262 8F*0C            [24] 1045 	mov	((__calib + 0x000c) + 0),r7
      000264 8E*0D            [24] 1046 	mov	((__calib + 0x000c) + 1),r6
                                   1047 ;	C:\Users\Clovisf\Documents\ch552\bme680\BME680.c:127: _calib.P6  = (int8_t)reg_read(BME680_REG_CALIB_P6);
      000266 75 82 99         [24] 1048 	mov	dpl, #0x99
      000269 C0 01            [24] 1049 	push	ar1
      00026B C0 00            [24] 1050 	push	ar0
      00026D 12r00r8B         [24] 1051 	lcall	_reg_read
      000270 AF 82            [24] 1052 	mov	r7, dpl
      000272 8F*0E            [24] 1053 	mov	(__calib + 0x000e),r7
                                   1054 ;	C:\Users\Clovisf\Documents\ch552\bme680\BME680.c:128: _calib.P7  = (int8_t)reg_read(BME680_REG_CALIB_P7);
      000274 75 82 98         [24] 1055 	mov	dpl, #0x98
      000277 12r00r8B         [24] 1056 	lcall	_reg_read
      00027A AF 82            [24] 1057 	mov	r7, dpl
      00027C 8F*0F            [24] 1058 	mov	(__calib + 0x000f),r7
                                   1059 ;	C:\Users\Clovisf\Documents\ch552\bme680\BME680.c:130: buf[0] = reg_read(BME680_REG_CALIB_P8_LSB);
      00027E 75 82 9C         [24] 1060 	mov	dpl, #0x9c
      000281 12r00r8B         [24] 1061 	lcall	_reg_read
      000284 E5 82            [12] 1062 	mov	a, dpl
      000286 D0 00            [24] 1063 	pop	ar0
      000288 D0 01            [24] 1064 	pop	ar1
      00028A F7               [12] 1065 	mov	@r1,a
                                   1066 ;	C:\Users\Clovisf\Documents\ch552\bme680\BME680.c:131: buf[1] = reg_read(BME680_REG_CALIB_P8_MSB);
      00028B 75 82 9D         [24] 1067 	mov	dpl, #0x9d
      00028E C0 01            [24] 1068 	push	ar1
      000290 C0 00            [24] 1069 	push	ar0
      000292 12r00r8B         [24] 1070 	lcall	_reg_read
      000295 AF 82            [24] 1071 	mov	r7, dpl
      000297 D0 00            [24] 1072 	pop	ar0
      000299 D0 01            [24] 1073 	pop	ar1
      00029B A6 07            [24] 1074 	mov	@r0,ar7
                                   1075 ;	C:\Users\Clovisf\Documents\ch552\bme680\BME680.c:132: _calib.P8 = (int16_t)((buf[1] << 8) | buf[0]);
      00029D 8F 06            [24] 1076 	mov	ar6,r7
      00029F 7F 00            [12] 1077 	mov	r7,#0x00
      0002A1 87 05            [24] 1078 	mov	ar5,@r1
      0002A3 7C 00            [12] 1079 	mov	r4,#0x00
      0002A5 ED               [12] 1080 	mov	a,r5
      0002A6 42 07            [12] 1081 	orl	ar7,a
      0002A8 EC               [12] 1082 	mov	a,r4
      0002A9 42 06            [12] 1083 	orl	ar6,a
      0002AB 8F*10            [24] 1084 	mov	((__calib + 0x0010) + 0),r7
      0002AD 8E*11            [24] 1085 	mov	((__calib + 0x0010) + 1),r6
                                   1086 ;	C:\Users\Clovisf\Documents\ch552\bme680\BME680.c:134: buf[0] = reg_read(BME680_REG_CALIB_P9_LSB);
      0002AF 75 82 9E         [24] 1087 	mov	dpl, #0x9e
      0002B2 C0 01            [24] 1088 	push	ar1
      0002B4 C0 00            [24] 1089 	push	ar0
      0002B6 12r00r8B         [24] 1090 	lcall	_reg_read
      0002B9 E5 82            [12] 1091 	mov	a, dpl
      0002BB D0 00            [24] 1092 	pop	ar0
      0002BD D0 01            [24] 1093 	pop	ar1
      0002BF F7               [12] 1094 	mov	@r1,a
                                   1095 ;	C:\Users\Clovisf\Documents\ch552\bme680\BME680.c:135: buf[1] = reg_read(BME680_REG_CALIB_P9_MSB);
      0002C0 75 82 9F         [24] 1096 	mov	dpl, #0x9f
      0002C3 C0 01            [24] 1097 	push	ar1
      0002C5 C0 00            [24] 1098 	push	ar0
      0002C7 12r00r8B         [24] 1099 	lcall	_reg_read
      0002CA AF 82            [24] 1100 	mov	r7, dpl
      0002CC D0 00            [24] 1101 	pop	ar0
      0002CE D0 01            [24] 1102 	pop	ar1
      0002D0 A6 07            [24] 1103 	mov	@r0,ar7
                                   1104 ;	C:\Users\Clovisf\Documents\ch552\bme680\BME680.c:136: _calib.P9 = (int16_t)((buf[1] << 8) | buf[0]);
      0002D2 8F 06            [24] 1105 	mov	ar6,r7
      0002D4 7F 00            [12] 1106 	mov	r7,#0x00
      0002D6 87 05            [24] 1107 	mov	ar5,@r1
      0002D8 7C 00            [12] 1108 	mov	r4,#0x00
      0002DA ED               [12] 1109 	mov	a,r5
      0002DB 42 07            [12] 1110 	orl	ar7,a
      0002DD EC               [12] 1111 	mov	a,r4
      0002DE 42 06            [12] 1112 	orl	ar6,a
      0002E0 8F*12            [24] 1113 	mov	((__calib + 0x0012) + 0),r7
      0002E2 8E*13            [24] 1114 	mov	((__calib + 0x0012) + 1),r6
                                   1115 ;	C:\Users\Clovisf\Documents\ch552\bme680\BME680.c:138: _calib.P10 = reg_read(BME680_REG_CALIB_P10);
      0002E4 75 82 A0         [24] 1116 	mov	dpl, #0xa0
      0002E7 12r00r8B         [24] 1117 	lcall	_reg_read
      0002EA E5 82            [12] 1118 	mov	a, dpl
      0002EC F5*14            [12] 1119 	mov	(__calib + 0x0014),a
                                   1120 ;	C:\Users\Clovisf\Documents\ch552\bme680\BME680.c:141: uint8_t h1_lsb_h2_lsb = reg_read(BME680_REG_CALIB_H1_LSB);
      0002EE 75 82 E2         [24] 1121 	mov	dpl, #0xe2
      0002F1 12r00r8B         [24] 1122 	lcall	_reg_read
      0002F4 AF 82            [24] 1123 	mov	r7, dpl
                                   1124 ;	C:\Users\Clovisf\Documents\ch552\bme680\BME680.c:142: _calib.H1 = (uint16_t)((reg_read(BME680_REG_CALIB_H1_MSB) << 4) | (h1_lsb_h2_lsb & 0x0F));
      0002F6 75 82 E3         [24] 1125 	mov	dpl, #0xe3
      0002F9 C0 07            [24] 1126 	push	ar7
      0002FB 12r00r8B         [24] 1127 	lcall	_reg_read
      0002FE AE 82            [24] 1128 	mov	r6, dpl
      000300 D0 07            [24] 1129 	pop	ar7
      000302 E4               [12] 1130 	clr	a
      000303 CE               [12] 1131 	xch	a,r6
      000304 C4               [12] 1132 	swap	a
      000305 CE               [12] 1133 	xch	a,r6
      000306 6E               [12] 1134 	xrl	a,r6
      000307 CE               [12] 1135 	xch	a,r6
      000308 54 F0            [12] 1136 	anl	a,#0xf0
      00030A CE               [12] 1137 	xch	a,r6
      00030B 6E               [12] 1138 	xrl	a,r6
      00030C FD               [12] 1139 	mov	r5,a
      00030D 8F 03            [24] 1140 	mov	ar3,r7
      00030F 53 03 0F         [24] 1141 	anl	ar3,#0x0f
      000312 7C 00            [12] 1142 	mov	r4,#0x00
      000314 EB               [12] 1143 	mov	a,r3
      000315 42 06            [12] 1144 	orl	ar6,a
      000317 EC               [12] 1145 	mov	a,r4
      000318 42 05            [12] 1146 	orl	ar5,a
      00031A 8E*15            [24] 1147 	mov	((__calib + 0x0015) + 0),r6
      00031C 8D*16            [24] 1148 	mov	((__calib + 0x0015) + 1),r5
                                   1149 ;	C:\Users\Clovisf\Documents\ch552\bme680\BME680.c:143: _calib.H2 = (uint16_t)((reg_read(BME680_REG_CALIB_H2_MSB) << 4) | (h1_lsb_h2_lsb >> 4));
      00031E 75 82 E1         [24] 1150 	mov	dpl, #0xe1
      000321 C0 07            [24] 1151 	push	ar7
      000323 12r00r8B         [24] 1152 	lcall	_reg_read
      000326 AE 82            [24] 1153 	mov	r6, dpl
      000328 D0 07            [24] 1154 	pop	ar7
      00032A E4               [12] 1155 	clr	a
      00032B CE               [12] 1156 	xch	a,r6
      00032C C4               [12] 1157 	swap	a
      00032D CE               [12] 1158 	xch	a,r6
      00032E 6E               [12] 1159 	xrl	a,r6
      00032F CE               [12] 1160 	xch	a,r6
      000330 54 F0            [12] 1161 	anl	a,#0xf0
      000332 CE               [12] 1162 	xch	a,r6
      000333 6E               [12] 1163 	xrl	a,r6
      000334 FD               [12] 1164 	mov	r5,a
      000335 EF               [12] 1165 	mov	a,r7
      000336 C4               [12] 1166 	swap	a
      000337 54 0F            [12] 1167 	anl	a,#0x0f
      000339 7C 00            [12] 1168 	mov	r4,#0x00
      00033B 42 06            [12] 1169 	orl	ar6,a
      00033D EC               [12] 1170 	mov	a,r4
      00033E 42 05            [12] 1171 	orl	ar5,a
      000340 8E*17            [24] 1172 	mov	((__calib + 0x0017) + 0),r6
      000342 8D*18            [24] 1173 	mov	((__calib + 0x0017) + 1),r5
                                   1174 ;	C:\Users\Clovisf\Documents\ch552\bme680\BME680.c:144: _calib.H3 = (int8_t)reg_read(BME680_REG_CALIB_H3);
      000344 75 82 E4         [24] 1175 	mov	dpl, #0xe4
      000347 12r00r8B         [24] 1176 	lcall	_reg_read
      00034A AF 82            [24] 1177 	mov	r7, dpl
      00034C 8F*19            [24] 1178 	mov	(__calib + 0x0019),r7
                                   1179 ;	C:\Users\Clovisf\Documents\ch552\bme680\BME680.c:145: _calib.H4 = (int8_t)reg_read(BME680_REG_CALIB_H4);
      00034E 75 82 E5         [24] 1180 	mov	dpl, #0xe5
      000351 12r00r8B         [24] 1181 	lcall	_reg_read
      000354 AF 82            [24] 1182 	mov	r7, dpl
      000356 8F*1A            [24] 1183 	mov	(__calib + 0x001a),r7
                                   1184 ;	C:\Users\Clovisf\Documents\ch552\bme680\BME680.c:146: _calib.H5 = (int8_t)reg_read(BME680_REG_CALIB_H5);
      000358 75 82 E6         [24] 1185 	mov	dpl, #0xe6
      00035B 12r00r8B         [24] 1186 	lcall	_reg_read
      00035E AF 82            [24] 1187 	mov	r7, dpl
      000360 8F*1B            [24] 1188 	mov	(__calib + 0x001b),r7
                                   1189 ;	C:\Users\Clovisf\Documents\ch552\bme680\BME680.c:147: _calib.H6 = reg_read(BME680_REG_CALIB_H6);
      000362 75 82 E7         [24] 1190 	mov	dpl, #0xe7
      000365 12r00r8B         [24] 1191 	lcall	_reg_read
      000368 E5 82            [12] 1192 	mov	a, dpl
      00036A F5*1C            [12] 1193 	mov	(__calib + 0x001c),a
                                   1194 ;	C:\Users\Clovisf\Documents\ch552\bme680\BME680.c:148: _calib.H7 = (int8_t)reg_read(BME680_REG_CALIB_H7);
      00036C 75 82 E8         [24] 1195 	mov	dpl, #0xe8
      00036F 12r00r8B         [24] 1196 	lcall	_reg_read
      000372 AF 82            [24] 1197 	mov	r7, dpl
      000374 8F*1D            [24] 1198 	mov	(__calib + 0x001d),r7
                                   1199 ;	C:\Users\Clovisf\Documents\ch552\bme680\BME680.c:149: }
      000376 85*00 81         [24] 1200 	mov	sp,_bp
      000379 D0*00            [24] 1201 	pop	_bp
      00037B 22               [24] 1202 	ret
                                   1203 ;------------------------------------------------------------
                                   1204 ;Allocation info for local variables in function 'compensate_temperature'
                                   1205 ;------------------------------------------------------------
                                   1206 ;adc_T         Allocated to registers r4 r5 r6 r7 
                                   1207 ;var1          Allocated to stack - _bp +5 +4 
                                   1208 ;var2          Allocated to stack - _bp +9 +4 
                                   1209 ;var3          Allocated to registers r4 r5 r6 r7 
                                   1210 ;T             Allocated to registers r4 r5 r6 r7 
                                   1211 ;sloc0         Allocated to stack - _bp +1 +4 
                                   1212 ;------------------------------------------------------------
                                   1213 ;	C:\Users\Clovisf\Documents\ch552\bme680\BME680.c:153: static int32_t compensate_temperature(uint32_t adc_T) {
                                   1214 ;	-----------------------------------------
                                   1215 ;	 function compensate_temperature
                                   1216 ;	-----------------------------------------
      00037C                       1217 _compensate_temperature:
      00037C C0*00            [24] 1218 	push	_bp
      00037E 85 81*00         [24] 1219 	mov	_bp,sp
      000381 AC 82            [24] 1220 	mov	r4,dpl
      000383 AD 83            [24] 1221 	mov	r5,dph
      000385 AE F0            [24] 1222 	mov	r6,b
      000387 FF               [12] 1223 	mov	r7,a
      000388 E5 81            [12] 1224 	mov	a,sp
      00038A 24 0C            [12] 1225 	add	a,#0x0c
      00038C F5 81            [12] 1226 	mov	sp,a
                                   1227 ;	C:\Users\Clovisf\Documents\ch552\bme680\BME680.c:156: var1 = ((int32_t)adc_T >> 3) - ((int32_t)_calib.T1 << 1);
      00038E A8*00            [24] 1228 	mov	r0,_bp
      000390 08               [12] 1229 	inc	r0
      000391 A6 04            [24] 1230 	mov	@r0,ar4
      000393 ED               [12] 1231 	mov	a,r5
      000394 C4               [12] 1232 	swap	a
      000395 23               [12] 1233 	rl	a
      000396 C6               [12] 1234 	xch	a,@r0
      000397 C4               [12] 1235 	swap	a
      000398 23               [12] 1236 	rl	a
      000399 54 1F            [12] 1237 	anl	a,#0x1f
      00039B 66               [12] 1238 	xrl	a,@r0
      00039C C6               [12] 1239 	xch	a,@r0
      00039D 54 1F            [12] 1240 	anl	a,#0x1f
      00039F C6               [12] 1241 	xch	a,@r0
      0003A0 66               [12] 1242 	xrl	a,@r0
      0003A1 C6               [12] 1243 	xch	a,@r0
      0003A2 08               [12] 1244 	inc	r0
      0003A3 F6               [12] 1245 	mov	@r0,a
      0003A4 EE               [12] 1246 	mov	a,r6
      0003A5 C4               [12] 1247 	swap	a
      0003A6 23               [12] 1248 	rl	a
      0003A7 54 E0            [12] 1249 	anl	a,#0xe0
      0003A9 46               [12] 1250 	orl	a,@r0
      0003AA F6               [12] 1251 	mov	@r0,a
      0003AB 08               [12] 1252 	inc	r0
      0003AC A6 06            [24] 1253 	mov	@r0,ar6
      0003AE EF               [12] 1254 	mov	a,r7
      0003AF C4               [12] 1255 	swap	a
      0003B0 23               [12] 1256 	rl	a
      0003B1 C6               [12] 1257 	xch	a,@r0
      0003B2 C4               [12] 1258 	swap	a
      0003B3 23               [12] 1259 	rl	a
      0003B4 54 1F            [12] 1260 	anl	a,#0x1f
      0003B6 66               [12] 1261 	xrl	a,@r0
      0003B7 C6               [12] 1262 	xch	a,@r0
      0003B8 54 1F            [12] 1263 	anl	a,#0x1f
      0003BA C6               [12] 1264 	xch	a,@r0
      0003BB 66               [12] 1265 	xrl	a,@r0
      0003BC C6               [12] 1266 	xch	a,@r0
      0003BD 30 E4 02         [24] 1267 	jnb	acc.4,00103$
      0003C0 44 E0            [12] 1268 	orl	a,#0xffffffe0
      0003C2                       1269 00103$:
      0003C2 08               [12] 1270 	inc	r0
      0003C3 F6               [12] 1271 	mov	@r0,a
      0003C4 AA*00            [24] 1272 	mov	r2,(__calib + 0)
      0003C6 AB*01            [24] 1273 	mov	r3,(__calib + 1)
      0003C8 E4               [12] 1274 	clr	a
      0003C9 FE               [12] 1275 	mov	r6,a
      0003CA FF               [12] 1276 	mov	r7,a
      0003CB EA               [12] 1277 	mov	a,r2
      0003CC 2A               [12] 1278 	add	a,r2
      0003CD FA               [12] 1279 	mov	r2,a
      0003CE EB               [12] 1280 	mov	a,r3
      0003CF 33               [12] 1281 	rlc	a
      0003D0 FB               [12] 1282 	mov	r3,a
      0003D1 EE               [12] 1283 	mov	a,r6
      0003D2 33               [12] 1284 	rlc	a
      0003D3 FE               [12] 1285 	mov	r6,a
      0003D4 EF               [12] 1286 	mov	a,r7
      0003D5 33               [12] 1287 	rlc	a
      0003D6 FF               [12] 1288 	mov	r7,a
      0003D7 A8*00            [24] 1289 	mov	r0,_bp
      0003D9 08               [12] 1290 	inc	r0
      0003DA E5*00            [12] 1291 	mov	a,_bp
      0003DC 24 05            [12] 1292 	add	a,#0x05
      0003DE F9               [12] 1293 	mov	r1,a
      0003DF E6               [12] 1294 	mov	a,@r0
      0003E0 C3               [12] 1295 	clr	c
      0003E1 9A               [12] 1296 	subb	a,r2
      0003E2 F7               [12] 1297 	mov	@r1,a
      0003E3 08               [12] 1298 	inc	r0
      0003E4 E6               [12] 1299 	mov	a,@r0
      0003E5 9B               [12] 1300 	subb	a,r3
      0003E6 09               [12] 1301 	inc	r1
      0003E7 F7               [12] 1302 	mov	@r1,a
      0003E8 08               [12] 1303 	inc	r0
      0003E9 E6               [12] 1304 	mov	a,@r0
      0003EA 9E               [12] 1305 	subb	a,r6
      0003EB 09               [12] 1306 	inc	r1
      0003EC F7               [12] 1307 	mov	@r1,a
      0003ED 08               [12] 1308 	inc	r0
      0003EE E6               [12] 1309 	mov	a,@r0
      0003EF 9F               [12] 1310 	subb	a,r7
      0003F0 09               [12] 1311 	inc	r1
      0003F1 F7               [12] 1312 	mov	@r1,a
                                   1313 ;	C:\Users\Clovisf\Documents\ch552\bme680\BME680.c:157: var2 = (var1 * (int32_t)_calib.T2) >> 11;
      0003F2 AC*02            [24] 1314 	mov	r4,(__calib + 0x0002)
      0003F4 E5*03            [12] 1315 	mov	a,((__calib + 0x0002) + 1)
      0003F6 FD               [12] 1316 	mov	r5,a
      0003F7 33               [12] 1317 	rlc	a
      0003F8 95 E0            [12] 1318 	subb	a,acc
      0003FA FE               [12] 1319 	mov	r6,a
      0003FB FF               [12] 1320 	mov	r7,a
      0003FC C0 04            [24] 1321 	push	ar4
      0003FE C0 05            [24] 1322 	push	ar5
      000400 C0 06            [24] 1323 	push	ar6
      000402 C0 07            [24] 1324 	push	ar7
      000404 E5*00            [12] 1325 	mov	a,_bp
      000406 24 05            [12] 1326 	add	a,#0x05
      000408 F8               [12] 1327 	mov	r0,a
      000409 86 82            [24] 1328 	mov	dpl, @r0
      00040B 08               [12] 1329 	inc	r0
      00040C 86 83            [24] 1330 	mov	dph, @r0
      00040E 08               [12] 1331 	inc	r0
      00040F 86 F0            [24] 1332 	mov	b, @r0
      000411 08               [12] 1333 	inc	r0
      000412 E6               [12] 1334 	mov	a, @r0
      000413 12r00r00         [24] 1335 	lcall	__mullong
      000416 AD 83            [24] 1336 	mov	r5, dph
      000418 AE F0            [24] 1337 	mov	r6, b
      00041A FF               [12] 1338 	mov	r7, a
      00041B E5 81            [12] 1339 	mov	a,sp
      00041D 24 FC            [12] 1340 	add	a,#0xfc
      00041F F5 81            [12] 1341 	mov	sp,a
      000421 E5*00            [12] 1342 	mov	a,_bp
      000423 24 09            [12] 1343 	add	a,#0x09
      000425 F8               [12] 1344 	mov	r0,a
      000426 A6 05            [24] 1345 	mov	@r0,ar5
      000428 EE               [12] 1346 	mov	a,r6
      000429 C4               [12] 1347 	swap	a
      00042A 23               [12] 1348 	rl	a
      00042B C6               [12] 1349 	xch	a,@r0
      00042C C4               [12] 1350 	swap	a
      00042D 23               [12] 1351 	rl	a
      00042E 54 1F            [12] 1352 	anl	a,#0x1f
      000430 66               [12] 1353 	xrl	a,@r0
      000431 C6               [12] 1354 	xch	a,@r0
      000432 54 1F            [12] 1355 	anl	a,#0x1f
      000434 C6               [12] 1356 	xch	a,@r0
      000435 66               [12] 1357 	xrl	a,@r0
      000436 C6               [12] 1358 	xch	a,@r0
      000437 08               [12] 1359 	inc	r0
      000438 F6               [12] 1360 	mov	@r0,a
      000439 EF               [12] 1361 	mov	a,r7
      00043A C4               [12] 1362 	swap	a
      00043B 23               [12] 1363 	rl	a
      00043C 54 E0            [12] 1364 	anl	a,#0xe0
      00043E 46               [12] 1365 	orl	a,@r0
      00043F F6               [12] 1366 	mov	@r0,a
      000440 EF               [12] 1367 	mov	a,r7
      000441 C4               [12] 1368 	swap	a
      000442 23               [12] 1369 	rl	a
      000443 54 1F            [12] 1370 	anl	a,#0x1f
      000445 30 E4 02         [24] 1371 	jnb	acc.4,00104$
      000448 44 E0            [12] 1372 	orl	a,#0xe0
      00044A                       1373 00104$:
      00044A 08               [12] 1374 	inc	r0
      00044B F6               [12] 1375 	mov	@r0,a
      00044C 33               [12] 1376 	rlc	a
      00044D 95 E0            [12] 1377 	subb	a,acc
      00044F 08               [12] 1378 	inc	r0
      000450 F6               [12] 1379 	mov	@r0,a
                                   1380 ;	C:\Users\Clovisf\Documents\ch552\bme680\BME680.c:158: var3 = ((var1 >> 1) * (var1 >> 1)) >> 12;
      000451 E5*00            [12] 1381 	mov	a,_bp
      000453 24 05            [12] 1382 	add	a,#0x05
      000455 F8               [12] 1383 	mov	r0,a
      000456 08               [12] 1384 	inc	r0
      000457 08               [12] 1385 	inc	r0
      000458 08               [12] 1386 	inc	r0
      000459 E6               [12] 1387 	mov	a,@r0
      00045A A2 E7            [12] 1388 	mov	c,acc.7
      00045C 13               [12] 1389 	rrc	a
      00045D FF               [12] 1390 	mov	r7,a
      00045E 18               [12] 1391 	dec	r0
      00045F E6               [12] 1392 	mov	a,@r0
      000460 13               [12] 1393 	rrc	a
      000461 FE               [12] 1394 	mov	r6,a
      000462 18               [12] 1395 	dec	r0
      000463 E6               [12] 1396 	mov	a,@r0
      000464 13               [12] 1397 	rrc	a
      000465 FB               [12] 1398 	mov	r3,a
      000466 18               [12] 1399 	dec	r0
      000467 E6               [12] 1400 	mov	a,@r0
      000468 13               [12] 1401 	rrc	a
      000469 FA               [12] 1402 	mov	r2,a
      00046A C0 02            [24] 1403 	push	ar2
      00046C C0 03            [24] 1404 	push	ar3
      00046E C0 06            [24] 1405 	push	ar6
      000470 C0 07            [24] 1406 	push	ar7
      000472 8A 82            [24] 1407 	mov	dpl, r2
      000474 8B 83            [24] 1408 	mov	dph, r3
      000476 8E F0            [24] 1409 	mov	b, r6
      000478 EF               [12] 1410 	mov	a, r7
      000479 12r00r00         [24] 1411 	lcall	__mullong
      00047C AD 83            [24] 1412 	mov	r5, dph
      00047E AE F0            [24] 1413 	mov	r6, b
      000480 FF               [12] 1414 	mov	r7, a
      000481 E5 81            [12] 1415 	mov	a,sp
      000483 24 FC            [12] 1416 	add	a,#0xfc
      000485 F5 81            [12] 1417 	mov	sp,a
      000487 A8*00            [24] 1418 	mov	r0,_bp
      000489 08               [12] 1419 	inc	r0
      00048A A6 05            [24] 1420 	mov	@r0,ar5
      00048C EE               [12] 1421 	mov	a,r6
      00048D C4               [12] 1422 	swap	a
      00048E C6               [12] 1423 	xch	a,@r0
      00048F C4               [12] 1424 	swap	a
      000490 54 0F            [12] 1425 	anl	a,#0x0f
      000492 66               [12] 1426 	xrl	a,@r0
      000493 C6               [12] 1427 	xch	a,@r0
      000494 54 0F            [12] 1428 	anl	a,#0x0f
      000496 C6               [12] 1429 	xch	a,@r0
      000497 66               [12] 1430 	xrl	a,@r0
      000498 C6               [12] 1431 	xch	a,@r0
      000499 08               [12] 1432 	inc	r0
      00049A F6               [12] 1433 	mov	@r0,a
      00049B EF               [12] 1434 	mov	a,r7
      00049C C4               [12] 1435 	swap	a
      00049D 54 F0            [12] 1436 	anl	a,#0xf0
      00049F 46               [12] 1437 	orl	a,@r0
      0004A0 F6               [12] 1438 	mov	@r0,a
      0004A1 EF               [12] 1439 	mov	a,r7
      0004A2 C4               [12] 1440 	swap	a
      0004A3 54 0F            [12] 1441 	anl	a,#0x0f
      0004A5 30 E3 02         [24] 1442 	jnb	acc.3,00105$
      0004A8 44 F0            [12] 1443 	orl	a,#0xf0
      0004AA                       1444 00105$:
      0004AA 08               [12] 1445 	inc	r0
      0004AB F6               [12] 1446 	mov	@r0,a
      0004AC 33               [12] 1447 	rlc	a
      0004AD 95 E0            [12] 1448 	subb	a,acc
      0004AF 08               [12] 1449 	inc	r0
      0004B0 F6               [12] 1450 	mov	@r0,a
                                   1451 ;	C:\Users\Clovisf\Documents\ch552\bme680\BME680.c:159: var3 = (var3 * ((int32_t)_calib.T3 << 4)) >> 14;
      0004B1 E5*04            [12] 1452 	mov	a,(__calib + 0x0004)
      0004B3 FA               [12] 1453 	mov	r2,a
      0004B4 33               [12] 1454 	rlc	a
      0004B5 95 E0            [12] 1455 	subb	a,acc
      0004B7 FB               [12] 1456 	mov	r3,a
      0004B8 FE               [12] 1457 	mov	r6,a
      0004B9 C4               [12] 1458 	swap	a
      0004BA 54 F0            [12] 1459 	anl	a,#0xf0
      0004BC CE               [12] 1460 	xch	a,r6
      0004BD C4               [12] 1461 	swap	a
      0004BE CE               [12] 1462 	xch	a,r6
      0004BF 6E               [12] 1463 	xrl	a,r6
      0004C0 CE               [12] 1464 	xch	a,r6
      0004C1 54 F0            [12] 1465 	anl	a,#0xf0
      0004C3 CE               [12] 1466 	xch	a,r6
      0004C4 6E               [12] 1467 	xrl	a,r6
      0004C5 FF               [12] 1468 	mov	r7,a
      0004C6 EB               [12] 1469 	mov	a,r3
      0004C7 C4               [12] 1470 	swap	a
      0004C8 54 0F            [12] 1471 	anl	a,#0x0f
      0004CA 4E               [12] 1472 	orl	a,r6
      0004CB FE               [12] 1473 	mov	r6,a
      0004CC EB               [12] 1474 	mov	a,r3
      0004CD C4               [12] 1475 	swap	a
      0004CE 54 F0            [12] 1476 	anl	a,#0xf0
      0004D0 CA               [12] 1477 	xch	a,r2
      0004D1 C4               [12] 1478 	swap	a
      0004D2 CA               [12] 1479 	xch	a,r2
      0004D3 6A               [12] 1480 	xrl	a,r2
      0004D4 CA               [12] 1481 	xch	a,r2
      0004D5 54 F0            [12] 1482 	anl	a,#0xf0
      0004D7 CA               [12] 1483 	xch	a,r2
      0004D8 6A               [12] 1484 	xrl	a,r2
      0004D9 FB               [12] 1485 	mov	r3,a
      0004DA C0 02            [24] 1486 	push	ar2
      0004DC C0 03            [24] 1487 	push	ar3
      0004DE C0 06            [24] 1488 	push	ar6
      0004E0 C0 07            [24] 1489 	push	ar7
      0004E2 A8*00            [24] 1490 	mov	r0,_bp
      0004E4 08               [12] 1491 	inc	r0
      0004E5 86 82            [24] 1492 	mov	dpl, @r0
      0004E7 08               [12] 1493 	inc	r0
      0004E8 86 83            [24] 1494 	mov	dph, @r0
      0004EA 08               [12] 1495 	inc	r0
      0004EB 86 F0            [24] 1496 	mov	b, @r0
      0004ED 08               [12] 1497 	inc	r0
      0004EE E6               [12] 1498 	mov	a, @r0
      0004EF 12r00r00         [24] 1499 	lcall	__mullong
      0004F2 AD 83            [24] 1500 	mov	r5, dph
      0004F4 AE F0            [24] 1501 	mov	r6, b
      0004F6 FF               [12] 1502 	mov	r7, a
      0004F7 E5 81            [12] 1503 	mov	a,sp
      0004F9 24 FC            [12] 1504 	add	a,#0xfc
      0004FB F5 81            [12] 1505 	mov	sp,a
      0004FD 8D 04            [24] 1506 	mov	ar4,r5
      0004FF EE               [12] 1507 	mov	a,r6
      000500 A2 E7            [12] 1508 	mov	c,acc.7
      000502 CC               [12] 1509 	xch	a,r4
      000503 33               [12] 1510 	rlc	a
      000504 CC               [12] 1511 	xch	a,r4
      000505 33               [12] 1512 	rlc	a
      000506 A2 E7            [12] 1513 	mov	c,acc.7
      000508 CC               [12] 1514 	xch	a,r4
      000509 33               [12] 1515 	rlc	a
      00050A CC               [12] 1516 	xch	a,r4
      00050B 33               [12] 1517 	rlc	a
      00050C CC               [12] 1518 	xch	a,r4
      00050D 54 03            [12] 1519 	anl	a,#0x03
      00050F FD               [12] 1520 	mov	r5,a
      000510 EF               [12] 1521 	mov	a,r7
      000511 2F               [12] 1522 	add	a,r7
      000512 25 E0            [12] 1523 	add	a,acc
      000514 4D               [12] 1524 	orl	a,r5
      000515 FD               [12] 1525 	mov	r5,a
      000516 EF               [12] 1526 	mov	a,r7
      000517 23               [12] 1527 	rl	a
      000518 23               [12] 1528 	rl	a
      000519 54 03            [12] 1529 	anl	a,#0x03
      00051B 30 E1 02         [24] 1530 	jnb	acc.1,00106$
      00051E 44 FC            [12] 1531 	orl	a,#0xfc
      000520                       1532 00106$:
      000520 FE               [12] 1533 	mov	r6,a
      000521 33               [12] 1534 	rlc	a
      000522 95 E0            [12] 1535 	subb	a,acc
      000524 FF               [12] 1536 	mov	r7,a
                                   1537 ;	C:\Users\Clovisf\Documents\ch552\bme680\BME680.c:160: _t_fine = var2 + var3;
      000525 E5*00            [12] 1538 	mov	a,_bp
      000527 24 09            [12] 1539 	add	a,#0x09
      000529 F8               [12] 1540 	mov	r0,a
      00052A EC               [12] 1541 	mov	a,r4
      00052B 26               [12] 1542 	add	a, @r0
      00052C F5*21            [12] 1543 	mov	__t_fine,a
      00052E ED               [12] 1544 	mov	a,r5
      00052F 08               [12] 1545 	inc	r0
      000530 36               [12] 1546 	addc	a, @r0
      000531 F5*22            [12] 1547 	mov	(__t_fine + 1),a
      000533 EE               [12] 1548 	mov	a,r6
      000534 08               [12] 1549 	inc	r0
      000535 36               [12] 1550 	addc	a, @r0
      000536 F5*23            [12] 1551 	mov	(__t_fine + 2),a
      000538 EF               [12] 1552 	mov	a,r7
      000539 08               [12] 1553 	inc	r0
      00053A 36               [12] 1554 	addc	a, @r0
      00053B F5*24            [12] 1555 	mov	(__t_fine + 3),a
                                   1556 ;	C:\Users\Clovisf\Documents\ch552\bme680\BME680.c:161: T = (_t_fine * 5 + 128) >> 8;   // degrees C * 100
      00053D C0*21            [24] 1557 	push	__t_fine
      00053F C0*22            [24] 1558 	push	(__t_fine + 1)
      000541 C0*23            [24] 1559 	push	(__t_fine + 2)
      000543 C0*24            [24] 1560 	push	(__t_fine + 3)
      000545 90 00 05         [24] 1561 	mov	dptr,#0x0005
      000548 E4               [12] 1562 	clr	a
      000549 F5 F0            [12] 1563 	mov	b,a
      00054B 12r00r00         [24] 1564 	lcall	__mullong
      00054E AC 82            [24] 1565 	mov	r4, dpl
      000550 AD 83            [24] 1566 	mov	r5, dph
      000552 AE F0            [24] 1567 	mov	r6, b
      000554 FF               [12] 1568 	mov	r7, a
      000555 E5 81            [12] 1569 	mov	a,sp
      000557 24 FC            [12] 1570 	add	a,#0xfc
      000559 F5 81            [12] 1571 	mov	sp,a
      00055B 74 80            [12] 1572 	mov	a,#0x80
      00055D 2C               [12] 1573 	add	a, r4
      00055E E4               [12] 1574 	clr	a
      00055F 3D               [12] 1575 	addc	a, r5
      000560 FD               [12] 1576 	mov	r5,a
      000561 E4               [12] 1577 	clr	a
      000562 3E               [12] 1578 	addc	a, r6
      000563 FE               [12] 1579 	mov	r6,a
      000564 E4               [12] 1580 	clr	a
      000565 3F               [12] 1581 	addc	a, r7
      000566 FF               [12] 1582 	mov	r7,a
      000567 8D 04            [24] 1583 	mov	ar4,r5
      000569 8E 05            [24] 1584 	mov	ar5,r6
      00056B EF               [12] 1585 	mov	a,r7
      00056C FE               [12] 1586 	mov	r6,a
      00056D 33               [12] 1587 	rlc	a
      00056E 95 E0            [12] 1588 	subb	a,acc
                                   1589 ;	C:\Users\Clovisf\Documents\ch552\bme680\BME680.c:162: return T;
      000570 8C 82            [24] 1590 	mov	dpl,r4
      000572 8D 83            [24] 1591 	mov	dph,r5
      000574 8E F0            [24] 1592 	mov	b,r6
                                   1593 ;	C:\Users\Clovisf\Documents\ch552\bme680\BME680.c:163: }
      000576 85*00 81         [24] 1594 	mov	sp,_bp
      000579 D0*00            [24] 1595 	pop	_bp
      00057B 22               [24] 1596 	ret
                                   1597 ;------------------------------------------------------------
                                   1598 ;Allocation info for local variables in function 'compensate_pressure'
                                   1599 ;------------------------------------------------------------
                                   1600 ;adc_P         Allocated to stack - _bp +1 +4 
                                   1601 ;var1          Allocated to registers r4 r5 r6 r7 
                                   1602 ;var2          Allocated to stack - _bp +17 +4 
                                   1603 ;var3          Allocated to stack - _bp +21 +4 
                                   1604 ;P             Allocated to registers r4 r5 r6 r7 
                                   1605 ;sloc0         Allocated to stack - _bp +5 +4 
                                   1606 ;sloc1         Allocated to stack - _bp +9 +4 
                                   1607 ;sloc2         Allocated to stack - _bp +13 +4 
                                   1608 ;------------------------------------------------------------
                                   1609 ;	C:\Users\Clovisf\Documents\ch552\bme680\BME680.c:165: static uint32_t compensate_pressure(uint32_t adc_P) {
                                   1610 ;	-----------------------------------------
                                   1611 ;	 function compensate_pressure
                                   1612 ;	-----------------------------------------
      00057C                       1613 _compensate_pressure:
      00057C C0*00            [24] 1614 	push	_bp
      00057E 85 81*00         [24] 1615 	mov	_bp,sp
      000581 C0 82            [24] 1616 	push	dpl
      000583 C0 83            [24] 1617 	push	dph
      000585 C0 F0            [24] 1618 	push	b
      000587 C0 E0            [24] 1619 	push	acc
      000589 E5 81            [12] 1620 	mov	a,sp
      00058B 24 14            [12] 1621 	add	a,#0x14
      00058D F5 81            [12] 1622 	mov	sp,a
                                   1623 ;	C:\Users\Clovisf\Documents\ch552\bme680\BME680.c:169: var1 = (((int32_t)_t_fine) >> 1) - 64000;
      00058F E5*24            [12] 1624 	mov	a,(__t_fine + 3)
      000591 A2 E7            [12] 1625 	mov	c,acc.7
      000593 13               [12] 1626 	rrc	a
      000594 FF               [12] 1627 	mov	r7,a
      000595 E5*23            [12] 1628 	mov	a,(__t_fine + 2)
      000597 13               [12] 1629 	rrc	a
      000598 FE               [12] 1630 	mov	r6,a
      000599 E5*22            [12] 1631 	mov	a,(__t_fine + 1)
      00059B 13               [12] 1632 	rrc	a
      00059C FB               [12] 1633 	mov	r3,a
      00059D E5*21            [12] 1634 	mov	a,__t_fine
      00059F 13               [12] 1635 	rrc	a
      0005A0 FA               [12] 1636 	mov	r2,a
      0005A1 E5*00            [12] 1637 	mov	a,_bp
      0005A3 24 05            [12] 1638 	add	a,#0x05
      0005A5 F8               [12] 1639 	mov	r0,a
      0005A6 A6 02            [24] 1640 	mov	@r0,ar2
      0005A8 EB               [12] 1641 	mov	a,r3
      0005A9 24 06            [12] 1642 	add	a,#0x06
      0005AB 08               [12] 1643 	inc	r0
      0005AC F6               [12] 1644 	mov	@r0,a
      0005AD EE               [12] 1645 	mov	a,r6
      0005AE 34 FF            [12] 1646 	addc	a,#0xff
      0005B0 08               [12] 1647 	inc	r0
      0005B1 F6               [12] 1648 	mov	@r0,a
      0005B2 EF               [12] 1649 	mov	a,r7
      0005B3 34 FF            [12] 1650 	addc	a,#0xff
      0005B5 08               [12] 1651 	inc	r0
      0005B6 F6               [12] 1652 	mov	@r0,a
                                   1653 ;	C:\Users\Clovisf\Documents\ch552\bme680\BME680.c:170: var2 = (((var1 >> 2) * (var1 >> 2)) >> 11) * (int32_t)_calib.P6;
      0005B7 E5*00            [12] 1654 	mov	a,_bp
      0005B9 24 05            [12] 1655 	add	a,#0x05
      0005BB F8               [12] 1656 	mov	r0,a
      0005BC 08               [12] 1657 	inc	r0
      0005BD 08               [12] 1658 	inc	r0
      0005BE 08               [12] 1659 	inc	r0
      0005BF E6               [12] 1660 	mov	a,@r0
      0005C0 A2 E7            [12] 1661 	mov	c,acc.7
      0005C2 13               [12] 1662 	rrc	a
      0005C3 FF               [12] 1663 	mov	r7,a
      0005C4 18               [12] 1664 	dec	r0
      0005C5 E6               [12] 1665 	mov	a,@r0
      0005C6 13               [12] 1666 	rrc	a
      0005C7 FE               [12] 1667 	mov	r6,a
      0005C8 18               [12] 1668 	dec	r0
      0005C9 E6               [12] 1669 	mov	a,@r0
      0005CA 13               [12] 1670 	rrc	a
      0005CB FD               [12] 1671 	mov	r5,a
      0005CC 18               [12] 1672 	dec	r0
      0005CD E6               [12] 1673 	mov	a,@r0
      0005CE 13               [12] 1674 	rrc	a
      0005CF FC               [12] 1675 	mov	r4,a
      0005D0 EF               [12] 1676 	mov	a,r7
      0005D1 A2 E7            [12] 1677 	mov	c,acc.7
      0005D3 13               [12] 1678 	rrc	a
      0005D4 FF               [12] 1679 	mov	r7,a
      0005D5 EE               [12] 1680 	mov	a,r6
      0005D6 13               [12] 1681 	rrc	a
      0005D7 FE               [12] 1682 	mov	r6,a
      0005D8 ED               [12] 1683 	mov	a,r5
      0005D9 13               [12] 1684 	rrc	a
      0005DA FD               [12] 1685 	mov	r5,a
      0005DB EC               [12] 1686 	mov	a,r4
      0005DC 13               [12] 1687 	rrc	a
      0005DD FC               [12] 1688 	mov	r4,a
      0005DE C0 04            [24] 1689 	push	ar4
      0005E0 C0 05            [24] 1690 	push	ar5
      0005E2 C0 06            [24] 1691 	push	ar6
      0005E4 C0 07            [24] 1692 	push	ar7
      0005E6 8C 82            [24] 1693 	mov	dpl, r4
      0005E8 8D 83            [24] 1694 	mov	dph, r5
      0005EA 8E F0            [24] 1695 	mov	b, r6
      0005EC EF               [12] 1696 	mov	a, r7
      0005ED 12r00r00         [24] 1697 	lcall	__mullong
      0005F0 C8               [12] 1698 	xch	a,r0
      0005F1 E5*00            [12] 1699 	mov	a,_bp
      0005F3 24 09            [12] 1700 	add	a,#0x09
      0005F5 C8               [12] 1701 	xch	a,r0
      0005F6 A6 82            [24] 1702 	mov	@r0, dpl
      0005F8 08               [12] 1703 	inc	r0
      0005F9 A6 83            [24] 1704 	mov	@r0, dph
      0005FB 08               [12] 1705 	inc	r0
      0005FC A6 F0            [24] 1706 	mov	@r0, b
      0005FE 08               [12] 1707 	inc	r0
      0005FF F6               [12] 1708 	mov	@r0,a
      000600 E5 81            [12] 1709 	mov	a,sp
      000602 24 FC            [12] 1710 	add	a,#0xfc
      000604 F5 81            [12] 1711 	mov	sp,a
      000606 E5*00            [12] 1712 	mov	a,_bp
      000608 24 09            [12] 1713 	add	a,#0x09
      00060A F8               [12] 1714 	mov	r0,a
      00060B E5*00            [12] 1715 	mov	a,_bp
      00060D 24 0D            [12] 1716 	add	a,#0x0d
      00060F F9               [12] 1717 	mov	r1,a
      000610 08               [12] 1718 	inc	r0
      000611 E6               [12] 1719 	mov	a,@r0
      000612 F7               [12] 1720 	mov	@r1,a
      000613 08               [12] 1721 	inc	r0
      000614 E6               [12] 1722 	mov	a,@r0
      000615 C4               [12] 1723 	swap	a
      000616 23               [12] 1724 	rl	a
      000617 C7               [12] 1725 	xch	a,@r1
      000618 C4               [12] 1726 	swap	a
      000619 23               [12] 1727 	rl	a
      00061A 54 1F            [12] 1728 	anl	a,#0x1f
      00061C 67               [12] 1729 	xrl	a,@r1
      00061D C7               [12] 1730 	xch	a,@r1
      00061E 54 1F            [12] 1731 	anl	a,#0x1f
      000620 C7               [12] 1732 	xch	a,@r1
      000621 67               [12] 1733 	xrl	a,@r1
      000622 C7               [12] 1734 	xch	a,@r1
      000623 09               [12] 1735 	inc	r1
      000624 F7               [12] 1736 	mov	@r1,a
      000625 08               [12] 1737 	inc	r0
      000626 E6               [12] 1738 	mov	a,@r0
      000627 C4               [12] 1739 	swap	a
      000628 23               [12] 1740 	rl	a
      000629 54 E0            [12] 1741 	anl	a,#0xe0
      00062B 47               [12] 1742 	orl	a,@r1
      00062C F7               [12] 1743 	mov	@r1,a
      00062D E6               [12] 1744 	mov	a,@r0
      00062E C4               [12] 1745 	swap	a
      00062F 23               [12] 1746 	rl	a
      000630 54 1F            [12] 1747 	anl	a,#0x1f
      000632 30 E4 02         [24] 1748 	jnb	acc.4,00122$
      000635 44 E0            [12] 1749 	orl	a,#0xe0
      000637                       1750 00122$:
      000637 09               [12] 1751 	inc	r1
      000638 F7               [12] 1752 	mov	@r1,a
      000639 33               [12] 1753 	rlc	a
      00063A 95 E0            [12] 1754 	subb	a,acc
      00063C 09               [12] 1755 	inc	r1
      00063D F7               [12] 1756 	mov	@r1,a
      00063E E5*0E            [12] 1757 	mov	a,(__calib + 0x000e)
      000640 FC               [12] 1758 	mov	r4,a
      000641 33               [12] 1759 	rlc	a
      000642 95 E0            [12] 1760 	subb	a,acc
      000644 FD               [12] 1761 	mov	r5,a
      000645 FE               [12] 1762 	mov	r6,a
      000646 FF               [12] 1763 	mov	r7,a
      000647 C0 04            [24] 1764 	push	ar4
      000649 C0 05            [24] 1765 	push	ar5
      00064B C0 06            [24] 1766 	push	ar6
      00064D C0 07            [24] 1767 	push	ar7
                                   1768 ;	C:\Users\Clovisf\Documents\ch552\bme680\BME680.c:171: var2 = var2 + ((var1 * (int32_t)_calib.P5) << 1);
      00064F E5*00            [12] 1769 	mov	a,_bp
      000651 24 0D            [12] 1770 	add	a,#0x0d
      000653 F8               [12] 1771 	mov	r0,a
      000654 86 82            [24] 1772 	mov	dpl, @r0
      000656 08               [12] 1773 	inc	r0
      000657 86 83            [24] 1774 	mov	dph, @r0
      000659 08               [12] 1775 	inc	r0
      00065A 86 F0            [24] 1776 	mov	b, @r0
      00065C 08               [12] 1777 	inc	r0
      00065D E6               [12] 1778 	mov	a, @r0
      00065E 12r00r00         [24] 1779 	lcall	__mullong
      000661 C8               [12] 1780 	xch	a,r0
      000662 E5*00            [12] 1781 	mov	a,_bp
      000664 24 0D            [12] 1782 	add	a,#0x0d
      000666 C8               [12] 1783 	xch	a,r0
      000667 A6 82            [24] 1784 	mov	@r0, dpl
      000669 08               [12] 1785 	inc	r0
      00066A A6 83            [24] 1786 	mov	@r0, dph
      00066C 08               [12] 1787 	inc	r0
      00066D A6 F0            [24] 1788 	mov	@r0, b
      00066F 08               [12] 1789 	inc	r0
      000670 F6               [12] 1790 	mov	@r0,a
      000671 E5 81            [12] 1791 	mov	a,sp
      000673 24 FC            [12] 1792 	add	a,#0xfc
      000675 F5 81            [12] 1793 	mov	sp,a
      000677 AA*0C            [24] 1794 	mov	r2,(__calib + 0x000c)
      000679 E5*0D            [12] 1795 	mov	a,((__calib + 0x000c) + 1)
      00067B FB               [12] 1796 	mov	r3,a
      00067C 33               [12] 1797 	rlc	a
      00067D 95 E0            [12] 1798 	subb	a,acc
      00067F FE               [12] 1799 	mov	r6,a
      000680 FF               [12] 1800 	mov	r7,a
      000681 C0 02            [24] 1801 	push	ar2
      000683 C0 03            [24] 1802 	push	ar3
      000685 C0 06            [24] 1803 	push	ar6
      000687 C0 07            [24] 1804 	push	ar7
      000689 E5*00            [12] 1805 	mov	a,_bp
      00068B 24 05            [12] 1806 	add	a,#0x05
      00068D F8               [12] 1807 	mov	r0,a
      00068E 86 82            [24] 1808 	mov	dpl, @r0
      000690 08               [12] 1809 	inc	r0
      000691 86 83            [24] 1810 	mov	dph, @r0
      000693 08               [12] 1811 	inc	r0
      000694 86 F0            [24] 1812 	mov	b, @r0
      000696 08               [12] 1813 	inc	r0
      000697 E6               [12] 1814 	mov	a, @r0
      000698 12r00r00         [24] 1815 	lcall	__mullong
      00069B AC 82            [24] 1816 	mov	r4, dpl
      00069D AD 83            [24] 1817 	mov	r5, dph
      00069F AE F0            [24] 1818 	mov	r6, b
      0006A1 FF               [12] 1819 	mov	r7, a
      0006A2 E5 81            [12] 1820 	mov	a,sp
      0006A4 24 FC            [12] 1821 	add	a,#0xfc
      0006A6 F5 81            [12] 1822 	mov	sp,a
      0006A8 EC               [12] 1823 	mov	a,r4
      0006A9 2C               [12] 1824 	add	a,r4
      0006AA FC               [12] 1825 	mov	r4,a
      0006AB ED               [12] 1826 	mov	a,r5
      0006AC 33               [12] 1827 	rlc	a
      0006AD FD               [12] 1828 	mov	r5,a
      0006AE EE               [12] 1829 	mov	a,r6
      0006AF 33               [12] 1830 	rlc	a
      0006B0 FE               [12] 1831 	mov	r6,a
      0006B1 EF               [12] 1832 	mov	a,r7
      0006B2 33               [12] 1833 	rlc	a
      0006B3 FF               [12] 1834 	mov	r7,a
      0006B4 E5*00            [12] 1835 	mov	a,_bp
      0006B6 24 0D            [12] 1836 	add	a,#0x0d
      0006B8 F8               [12] 1837 	mov	r0,a
      0006B9 EC               [12] 1838 	mov	a,r4
      0006BA 26               [12] 1839 	add	a, @r0
      0006BB FC               [12] 1840 	mov	r4,a
      0006BC ED               [12] 1841 	mov	a,r5
      0006BD 08               [12] 1842 	inc	r0
      0006BE 36               [12] 1843 	addc	a, @r0
      0006BF FD               [12] 1844 	mov	r5,a
      0006C0 EE               [12] 1845 	mov	a,r6
      0006C1 08               [12] 1846 	inc	r0
      0006C2 36               [12] 1847 	addc	a, @r0
      0006C3 FE               [12] 1848 	mov	r6,a
      0006C4 EF               [12] 1849 	mov	a,r7
      0006C5 08               [12] 1850 	inc	r0
      0006C6 36               [12] 1851 	addc	a, @r0
      0006C7 FF               [12] 1852 	mov	r7,a
                                   1853 ;	C:\Users\Clovisf\Documents\ch552\bme680\BME680.c:172: var2 = (var2 >> 2) + ((int32_t)_calib.P4 << 16);
      0006C8 E5*00            [12] 1854 	mov	a,_bp
      0006CA 24 0D            [12] 1855 	add	a,#0x0d
      0006CC F8               [12] 1856 	mov	r0,a
      0006CD EF               [12] 1857 	mov	a,r7
      0006CE A2 E7            [12] 1858 	mov	c,acc.7
      0006D0 13               [12] 1859 	rrc	a
      0006D1 08               [12] 1860 	inc	r0
      0006D2 08               [12] 1861 	inc	r0
      0006D3 08               [12] 1862 	inc	r0
      0006D4 F6               [12] 1863 	mov	@r0,a
      0006D5 EE               [12] 1864 	mov	a,r6
      0006D6 13               [12] 1865 	rrc	a
      0006D7 18               [12] 1866 	dec	r0
      0006D8 F6               [12] 1867 	mov	@r0,a
      0006D9 ED               [12] 1868 	mov	a,r5
      0006DA 13               [12] 1869 	rrc	a
      0006DB 18               [12] 1870 	dec	r0
      0006DC F6               [12] 1871 	mov	@r0,a
      0006DD EC               [12] 1872 	mov	a,r4
      0006DE 13               [12] 1873 	rrc	a
      0006DF 18               [12] 1874 	dec	r0
      0006E0 F6               [12] 1875 	mov	@r0,a
      0006E1 08               [12] 1876 	inc	r0
      0006E2 08               [12] 1877 	inc	r0
      0006E3 08               [12] 1878 	inc	r0
      0006E4 E6               [12] 1879 	mov	a,@r0
      0006E5 A2 E7            [12] 1880 	mov	c,acc.7
      0006E7 13               [12] 1881 	rrc	a
      0006E8 F6               [12] 1882 	mov	@r0,a
      0006E9 18               [12] 1883 	dec	r0
      0006EA E6               [12] 1884 	mov	a,@r0
      0006EB 13               [12] 1885 	rrc	a
      0006EC F6               [12] 1886 	mov	@r0,a
      0006ED 18               [12] 1887 	dec	r0
      0006EE E6               [12] 1888 	mov	a,@r0
      0006EF 13               [12] 1889 	rrc	a
      0006F0 F6               [12] 1890 	mov	@r0,a
      0006F1 18               [12] 1891 	dec	r0
      0006F2 E6               [12] 1892 	mov	a,@r0
      0006F3 13               [12] 1893 	rrc	a
      0006F4 F6               [12] 1894 	mov	@r0,a
      0006F5 AA*0A            [24] 1895 	mov	r2,(__calib + 0x000a)
      0006F7 E5*0B            [12] 1896 	mov	a,((__calib + 0x000a) + 1)
      0006F9 FB               [12] 1897 	mov	r3,a
      0006FA 33               [12] 1898 	rlc	a
      0006FB 95 E0            [12] 1899 	subb	a,acc
      0006FD 8B 07            [24] 1900 	mov	ar7,r3
      0006FF 8A 06            [24] 1901 	mov	ar6,r2
      000701 E4               [12] 1902 	clr	a
      000702 FA               [12] 1903 	mov	r2,a
      000703 FB               [12] 1904 	mov	r3,a
      000704 E5*00            [12] 1905 	mov	a,_bp
      000706 24 0D            [12] 1906 	add	a,#0x0d
      000708 F8               [12] 1907 	mov	r0,a
      000709 EA               [12] 1908 	mov	a,r2
      00070A 26               [12] 1909 	add	a, @r0
      00070B F6               [12] 1910 	mov	@r0,a
      00070C EB               [12] 1911 	mov	a,r3
      00070D 08               [12] 1912 	inc	r0
      00070E 36               [12] 1913 	addc	a, @r0
      00070F F6               [12] 1914 	mov	@r0,a
      000710 EE               [12] 1915 	mov	a,r6
      000711 08               [12] 1916 	inc	r0
      000712 36               [12] 1917 	addc	a, @r0
      000713 F6               [12] 1918 	mov	@r0,a
      000714 EF               [12] 1919 	mov	a,r7
      000715 08               [12] 1920 	inc	r0
      000716 36               [12] 1921 	addc	a, @r0
      000717 F6               [12] 1922 	mov	@r0,a
                                   1923 ;	C:\Users\Clovisf\Documents\ch552\bme680\BME680.c:173: var1 = (((((var1 >> 2) * (var1 >> 2)) >> 13) *
      000718 E5*00            [12] 1924 	mov	a,_bp
      00071A 24 09            [12] 1925 	add	a,#0x09
      00071C F8               [12] 1926 	mov	r0,a
      00071D 08               [12] 1927 	inc	r0
      00071E E6               [12] 1928 	mov	a,@r0
      00071F 18               [12] 1929 	dec	r0
      000720 F6               [12] 1930 	mov	@r0,a
      000721 08               [12] 1931 	inc	r0
      000722 08               [12] 1932 	inc	r0
      000723 E6               [12] 1933 	mov	a,@r0
      000724 18               [12] 1934 	dec	r0
      000725 18               [12] 1935 	dec	r0
      000726 C4               [12] 1936 	swap	a
      000727 03               [12] 1937 	rr	a
      000728 C6               [12] 1938 	xch	a,@r0
      000729 C4               [12] 1939 	swap	a
      00072A 03               [12] 1940 	rr	a
      00072B 54 07            [12] 1941 	anl	a,#0x07
      00072D 66               [12] 1942 	xrl	a,@r0
      00072E C6               [12] 1943 	xch	a,@r0
      00072F 54 07            [12] 1944 	anl	a,#0x07
      000731 C6               [12] 1945 	xch	a,@r0
      000732 66               [12] 1946 	xrl	a,@r0
      000733 C6               [12] 1947 	xch	a,@r0
      000734 08               [12] 1948 	inc	r0
      000735 F6               [12] 1949 	mov	@r0,a
      000736 08               [12] 1950 	inc	r0
      000737 08               [12] 1951 	inc	r0
      000738 E6               [12] 1952 	mov	a,@r0
      000739 C4               [12] 1953 	swap	a
      00073A 03               [12] 1954 	rr	a
      00073B 54 F8            [12] 1955 	anl	a,#0xf8
      00073D 18               [12] 1956 	dec	r0
      00073E 18               [12] 1957 	dec	r0
      00073F 46               [12] 1958 	orl	a,@r0
      000740 F6               [12] 1959 	mov	@r0,a
      000741 08               [12] 1960 	inc	r0
      000742 08               [12] 1961 	inc	r0
      000743 E6               [12] 1962 	mov	a,@r0
      000744 C4               [12] 1963 	swap	a
      000745 03               [12] 1964 	rr	a
      000746 54 07            [12] 1965 	anl	a,#0x07
      000748 30 E2 02         [24] 1966 	jnb	acc.2,00123$
      00074B 44 F8            [12] 1967 	orl	a,#0xf8
      00074D                       1968 00123$:
      00074D 18               [12] 1969 	dec	r0
      00074E F6               [12] 1970 	mov	@r0,a
      00074F 33               [12] 1971 	rlc	a
      000750 95 E0            [12] 1972 	subb	a,acc
      000752 08               [12] 1973 	inc	r0
      000753 F6               [12] 1974 	mov	@r0,a
                                   1975 ;	C:\Users\Clovisf\Documents\ch552\bme680\BME680.c:174: ((int32_t)_calib.P3 << 5)) >> 3) +
      000754 E5*09            [12] 1976 	mov	a,(__calib + 0x0009)
      000756 FC               [12] 1977 	mov	r4,a
      000757 33               [12] 1978 	rlc	a
      000758 95 E0            [12] 1979 	subb	a,acc
      00075A FD               [12] 1980 	mov	r5,a
      00075B FE               [12] 1981 	mov	r6,a
      00075C C4               [12] 1982 	swap	a
      00075D 23               [12] 1983 	rl	a
      00075E 54 E0            [12] 1984 	anl	a,#0xe0
      000760 CE               [12] 1985 	xch	a,r6
      000761 C4               [12] 1986 	swap	a
      000762 23               [12] 1987 	rl	a
      000763 CE               [12] 1988 	xch	a,r6
      000764 6E               [12] 1989 	xrl	a,r6
      000765 CE               [12] 1990 	xch	a,r6
      000766 54 E0            [12] 1991 	anl	a,#0xe0
      000768 CE               [12] 1992 	xch	a,r6
      000769 6E               [12] 1993 	xrl	a,r6
      00076A FF               [12] 1994 	mov	r7,a
      00076B ED               [12] 1995 	mov	a,r5
      00076C C4               [12] 1996 	swap	a
      00076D 23               [12] 1997 	rl	a
      00076E 54 1F            [12] 1998 	anl	a,#0x1f
      000770 4E               [12] 1999 	orl	a,r6
      000771 FE               [12] 2000 	mov	r6,a
      000772 ED               [12] 2001 	mov	a,r5
      000773 C4               [12] 2002 	swap	a
      000774 23               [12] 2003 	rl	a
      000775 54 E0            [12] 2004 	anl	a,#0xe0
      000777 CC               [12] 2005 	xch	a,r4
      000778 C4               [12] 2006 	swap	a
      000779 23               [12] 2007 	rl	a
      00077A CC               [12] 2008 	xch	a,r4
      00077B 6C               [12] 2009 	xrl	a,r4
      00077C CC               [12] 2010 	xch	a,r4
      00077D 54 E0            [12] 2011 	anl	a,#0xe0
      00077F CC               [12] 2012 	xch	a,r4
      000780 6C               [12] 2013 	xrl	a,r4
      000781 FD               [12] 2014 	mov	r5,a
      000782 C0 04            [24] 2015 	push	ar4
      000784 C0 05            [24] 2016 	push	ar5
      000786 C0 06            [24] 2017 	push	ar6
      000788 C0 07            [24] 2018 	push	ar7
      00078A E5*00            [12] 2019 	mov	a,_bp
      00078C 24 09            [12] 2020 	add	a,#0x09
      00078E F8               [12] 2021 	mov	r0,a
      00078F 86 82            [24] 2022 	mov	dpl, @r0
      000791 08               [12] 2023 	inc	r0
      000792 86 83            [24] 2024 	mov	dph, @r0
      000794 08               [12] 2025 	inc	r0
      000795 86 F0            [24] 2026 	mov	b, @r0
      000797 08               [12] 2027 	inc	r0
      000798 E6               [12] 2028 	mov	a, @r0
      000799 12r00r00         [24] 2029 	lcall	__mullong
      00079C AC 82            [24] 2030 	mov	r4, dpl
      00079E AD 83            [24] 2031 	mov	r5, dph
      0007A0 AE F0            [24] 2032 	mov	r6, b
      0007A2 FF               [12] 2033 	mov	r7, a
      0007A3 E5 81            [12] 2034 	mov	a,sp
      0007A5 24 FC            [12] 2035 	add	a,#0xfc
      0007A7 F5 81            [12] 2036 	mov	sp,a
      0007A9 E5*00            [12] 2037 	mov	a,_bp
      0007AB 24 09            [12] 2038 	add	a,#0x09
      0007AD F8               [12] 2039 	mov	r0,a
      0007AE A6 04            [24] 2040 	mov	@r0,ar4
      0007B0 ED               [12] 2041 	mov	a,r5
      0007B1 C4               [12] 2042 	swap	a
      0007B2 23               [12] 2043 	rl	a
      0007B3 C6               [12] 2044 	xch	a,@r0
      0007B4 C4               [12] 2045 	swap	a
      0007B5 23               [12] 2046 	rl	a
      0007B6 54 1F            [12] 2047 	anl	a,#0x1f
      0007B8 66               [12] 2048 	xrl	a,@r0
      0007B9 C6               [12] 2049 	xch	a,@r0
      0007BA 54 1F            [12] 2050 	anl	a,#0x1f
      0007BC C6               [12] 2051 	xch	a,@r0
      0007BD 66               [12] 2052 	xrl	a,@r0
      0007BE C6               [12] 2053 	xch	a,@r0
      0007BF 08               [12] 2054 	inc	r0
      0007C0 F6               [12] 2055 	mov	@r0,a
      0007C1 EE               [12] 2056 	mov	a,r6
      0007C2 C4               [12] 2057 	swap	a
      0007C3 23               [12] 2058 	rl	a
      0007C4 54 E0            [12] 2059 	anl	a,#0xe0
      0007C6 46               [12] 2060 	orl	a,@r0
      0007C7 F6               [12] 2061 	mov	@r0,a
      0007C8 08               [12] 2062 	inc	r0
      0007C9 A6 06            [24] 2063 	mov	@r0,ar6
      0007CB EF               [12] 2064 	mov	a,r7
      0007CC C4               [12] 2065 	swap	a
      0007CD 23               [12] 2066 	rl	a
      0007CE C6               [12] 2067 	xch	a,@r0
      0007CF C4               [12] 2068 	swap	a
      0007D0 23               [12] 2069 	rl	a
      0007D1 54 1F            [12] 2070 	anl	a,#0x1f
      0007D3 66               [12] 2071 	xrl	a,@r0
      0007D4 C6               [12] 2072 	xch	a,@r0
      0007D5 54 1F            [12] 2073 	anl	a,#0x1f
      0007D7 C6               [12] 2074 	xch	a,@r0
      0007D8 66               [12] 2075 	xrl	a,@r0
      0007D9 C6               [12] 2076 	xch	a,@r0
      0007DA 30 E4 02         [24] 2077 	jnb	acc.4,00124$
      0007DD 44 E0            [12] 2078 	orl	a,#0xffffffe0
      0007DF                       2079 00124$:
      0007DF 08               [12] 2080 	inc	r0
      0007E0 F6               [12] 2081 	mov	@r0,a
                                   2082 ;	C:\Users\Clovisf\Documents\ch552\bme680\BME680.c:175: (((int32_t)_calib.P2 * var1) >> 1);
      0007E1 AA*07            [24] 2083 	mov	r2,(__calib + 0x0007)
      0007E3 E5*08            [12] 2084 	mov	a,((__calib + 0x0007) + 1)
      0007E5 FB               [12] 2085 	mov	r3,a
      0007E6 33               [12] 2086 	rlc	a
      0007E7 95 E0            [12] 2087 	subb	a,acc
      0007E9 FE               [12] 2088 	mov	r6,a
      0007EA FF               [12] 2089 	mov	r7,a
      0007EB E5*00            [12] 2090 	mov	a,_bp
      0007ED 24 05            [12] 2091 	add	a,#0x05
      0007EF F8               [12] 2092 	mov	r0,a
      0007F0 E6               [12] 2093 	mov	a,@r0
      0007F1 C0 E0            [24] 2094 	push	acc
      0007F3 08               [12] 2095 	inc	r0
      0007F4 E6               [12] 2096 	mov	a,@r0
      0007F5 C0 E0            [24] 2097 	push	acc
      0007F7 08               [12] 2098 	inc	r0
      0007F8 E6               [12] 2099 	mov	a,@r0
      0007F9 C0 E0            [24] 2100 	push	acc
      0007FB 08               [12] 2101 	inc	r0
      0007FC E6               [12] 2102 	mov	a,@r0
      0007FD C0 E0            [24] 2103 	push	acc
      0007FF 8A 82            [24] 2104 	mov	dpl, r2
      000801 8B 83            [24] 2105 	mov	dph, r3
      000803 8E F0            [24] 2106 	mov	b, r6
      000805 EF               [12] 2107 	mov	a, r7
      000806 12r00r00         [24] 2108 	lcall	__mullong
      000809 AC 82            [24] 2109 	mov	r4, dpl
      00080B AD 83            [24] 2110 	mov	r5, dph
      00080D AE F0            [24] 2111 	mov	r6, b
      00080F FF               [12] 2112 	mov	r7, a
      000810 E5 81            [12] 2113 	mov	a,sp
      000812 24 FC            [12] 2114 	add	a,#0xfc
      000814 F5 81            [12] 2115 	mov	sp,a
      000816 EF               [12] 2116 	mov	a,r7
      000817 A2 E7            [12] 2117 	mov	c,acc.7
      000819 13               [12] 2118 	rrc	a
      00081A FF               [12] 2119 	mov	r7,a
      00081B EE               [12] 2120 	mov	a,r6
      00081C 13               [12] 2121 	rrc	a
      00081D FE               [12] 2122 	mov	r6,a
      00081E ED               [12] 2123 	mov	a,r5
      00081F 13               [12] 2124 	rrc	a
      000820 FD               [12] 2125 	mov	r5,a
      000821 EC               [12] 2126 	mov	a,r4
      000822 13               [12] 2127 	rrc	a
      000823 FC               [12] 2128 	mov	r4,a
      000824 E5*00            [12] 2129 	mov	a,_bp
      000826 24 09            [12] 2130 	add	a,#0x09
      000828 F8               [12] 2131 	mov	r0,a
      000829 EC               [12] 2132 	mov	a,r4
      00082A 26               [12] 2133 	add	a, @r0
      00082B ED               [12] 2134 	mov	a,r5
      00082C 08               [12] 2135 	inc	r0
      00082D 36               [12] 2136 	addc	a, @r0
      00082E EE               [12] 2137 	mov	a,r6
      00082F 08               [12] 2138 	inc	r0
      000830 36               [12] 2139 	addc	a, @r0
      000831 FE               [12] 2140 	mov	r6,a
      000832 EF               [12] 2141 	mov	a,r7
      000833 08               [12] 2142 	inc	r0
      000834 36               [12] 2143 	addc	a, @r0
                                   2144 ;	C:\Users\Clovisf\Documents\ch552\bme680\BME680.c:176: var1 = var1 >> 18;
      000835 8E 04            [24] 2145 	mov	ar4,r6
      000837 A2 E7            [12] 2146 	mov	c,acc.7
      000839 13               [12] 2147 	rrc	a
      00083A CC               [12] 2148 	xch	a,r4
      00083B 13               [12] 2149 	rrc	a
      00083C CC               [12] 2150 	xch	a,r4
      00083D A2 E7            [12] 2151 	mov	c,acc.7
      00083F 13               [12] 2152 	rrc	a
      000840 CC               [12] 2153 	xch	a,r4
      000841 13               [12] 2154 	rrc	a
      000842 CC               [12] 2155 	xch	a,r4
      000843 FD               [12] 2156 	mov	r5,a
      000844 33               [12] 2157 	rlc	a
      000845 95 E0            [12] 2158 	subb	a,acc
      000847 FE               [12] 2159 	mov	r6,a
      000848 FF               [12] 2160 	mov	r7,a
                                   2161 ;	C:\Users\Clovisf\Documents\ch552\bme680\BME680.c:177: var1 = ((32768 + var1) * (int32_t)_calib.P1) >> 15;
      000849 E5*00            [12] 2162 	mov	a,_bp
      00084B 24 09            [12] 2163 	add	a,#0x09
      00084D F8               [12] 2164 	mov	r0,a
      00084E A6 04            [24] 2165 	mov	@r0,ar4
      000850 74 80            [12] 2166 	mov	a,#0x80
      000852 2D               [12] 2167 	add	a, r5
      000853 08               [12] 2168 	inc	r0
      000854 F6               [12] 2169 	mov	@r0,a
      000855 E4               [12] 2170 	clr	a
      000856 3E               [12] 2171 	addc	a, r6
      000857 08               [12] 2172 	inc	r0
      000858 F6               [12] 2173 	mov	@r0,a
      000859 E4               [12] 2174 	clr	a
      00085A 3F               [12] 2175 	addc	a, r7
      00085B 08               [12] 2176 	inc	r0
      00085C F6               [12] 2177 	mov	@r0,a
      00085D AA*05            [24] 2178 	mov	r2,(__calib + 0x0005)
      00085F AB*06            [24] 2179 	mov	r3,((__calib + 0x0005) + 1)
      000861 7E 00            [12] 2180 	mov	r6,#0x00
      000863 7F 00            [12] 2181 	mov	r7,#0x00
      000865 C0 02            [24] 2182 	push	ar2
      000867 C0 03            [24] 2183 	push	ar3
      000869 C0 06            [24] 2184 	push	ar6
      00086B C0 07            [24] 2185 	push	ar7
      00086D E5*00            [12] 2186 	mov	a,_bp
      00086F 24 09            [12] 2187 	add	a,#0x09
      000871 F8               [12] 2188 	mov	r0,a
      000872 86 82            [24] 2189 	mov	dpl, @r0
      000874 08               [12] 2190 	inc	r0
      000875 86 83            [24] 2191 	mov	dph, @r0
      000877 08               [12] 2192 	inc	r0
      000878 86 F0            [24] 2193 	mov	b, @r0
      00087A 08               [12] 2194 	inc	r0
      00087B E6               [12] 2195 	mov	a, @r0
      00087C 12r00r00         [24] 2196 	lcall	__mullong
      00087F AD 83            [24] 2197 	mov	r5, dph
      000881 AE F0            [24] 2198 	mov	r6, b
      000883 FF               [12] 2199 	mov	r7, a
      000884 E5 81            [12] 2200 	mov	a,sp
      000886 24 FC            [12] 2201 	add	a,#0xfc
      000888 F5 81            [12] 2202 	mov	sp,a
      00088A E5*00            [12] 2203 	mov	a,_bp
      00088C 24 05            [12] 2204 	add	a,#0x05
      00088E F8               [12] 2205 	mov	r0,a
      00088F A6 05            [24] 2206 	mov	@r0,ar5
      000891 EE               [12] 2207 	mov	a,r6
      000892 A2 E7            [12] 2208 	mov	c,acc.7
      000894 C6               [12] 2209 	xch	a,@r0
      000895 33               [12] 2210 	rlc	a
      000896 C6               [12] 2211 	xch	a,@r0
      000897 33               [12] 2212 	rlc	a
      000898 C6               [12] 2213 	xch	a,@r0
      000899 54 01            [12] 2214 	anl	a,#0x01
      00089B 08               [12] 2215 	inc	r0
      00089C F6               [12] 2216 	mov	@r0,a
      00089D EF               [12] 2217 	mov	a,r7
      00089E 2F               [12] 2218 	add	a,r7
      00089F 46               [12] 2219 	orl	a,@r0
      0008A0 F6               [12] 2220 	mov	@r0,a
      0008A1 EF               [12] 2221 	mov	a,r7
      0008A2 23               [12] 2222 	rl	a
      0008A3 54 01            [12] 2223 	anl	a,#0x01
      0008A5 30 E0 02         [24] 2224 	jnb	acc.0,00125$
      0008A8 44 FE            [12] 2225 	orl	a,#0xfe
      0008AA                       2226 00125$:
      0008AA 08               [12] 2227 	inc	r0
      0008AB F6               [12] 2228 	mov	@r0,a
      0008AC 33               [12] 2229 	rlc	a
      0008AD 95 E0            [12] 2230 	subb	a,acc
      0008AF 08               [12] 2231 	inc	r0
      0008B0 F6               [12] 2232 	mov	@r0,a
                                   2233 ;	C:\Users\Clovisf\Documents\ch552\bme680\BME680.c:179: if (var1 == 0) return 0;
      0008B1 E5*00            [12] 2234 	mov	a,_bp
      0008B3 24 05            [12] 2235 	add	a,#0x05
      0008B5 F8               [12] 2236 	mov	r0,a
      0008B6 E6               [12] 2237 	mov	a,@r0
      0008B7 08               [12] 2238 	inc	r0
      0008B8 46               [12] 2239 	orl	a,@r0
      0008B9 08               [12] 2240 	inc	r0
      0008BA 46               [12] 2241 	orl	a,@r0
      0008BB 08               [12] 2242 	inc	r0
      0008BC 46               [12] 2243 	orl	a,@r0
      0008BD 70 09            [24] 2244 	jnz	00102$
      0008BF 90 00 00         [24] 2245 	mov	dptr,#0x0000
      0008C2 E4               [12] 2246 	clr	a
      0008C3 F5 F0            [12] 2247 	mov	b,a
      0008C5 02r0CrDF         [24] 2248 	ljmp	00106$
      0008C8                       2249 00102$:
                                   2250 ;	C:\Users\Clovisf\Documents\ch552\bme680\BME680.c:181: P    = (uint32_t)(((int32_t)1048576 - (int32_t)adc_P) - (var2 >> 12));
      0008C8 A8*00            [24] 2251 	mov	r0,_bp
      0008CA 08               [12] 2252 	inc	r0
      0008CB 86 02            [24] 2253 	mov	ar2,@r0
      0008CD 08               [12] 2254 	inc	r0
      0008CE 86 03            [24] 2255 	mov	ar3,@r0
      0008D0 08               [12] 2256 	inc	r0
      0008D1 86 06            [24] 2257 	mov	ar6,@r0
      0008D3 08               [12] 2258 	inc	r0
      0008D4 86 07            [24] 2259 	mov	ar7,@r0
      0008D6 E5*00            [12] 2260 	mov	a,_bp
      0008D8 24 09            [12] 2261 	add	a,#0x09
      0008DA F8               [12] 2262 	mov	r0,a
      0008DB E4               [12] 2263 	clr	a
      0008DC C3               [12] 2264 	clr	c
      0008DD 9A               [12] 2265 	subb	a,r2
      0008DE F6               [12] 2266 	mov	@r0,a
      0008DF E4               [12] 2267 	clr	a
      0008E0 9B               [12] 2268 	subb	a,r3
      0008E1 08               [12] 2269 	inc	r0
      0008E2 F6               [12] 2270 	mov	@r0,a
      0008E3 74 10            [12] 2271 	mov	a,#0x10
      0008E5 9E               [12] 2272 	subb	a,r6
      0008E6 08               [12] 2273 	inc	r0
      0008E7 F6               [12] 2274 	mov	@r0,a
      0008E8 E4               [12] 2275 	clr	a
      0008E9 9F               [12] 2276 	subb	a,r7
      0008EA 08               [12] 2277 	inc	r0
      0008EB F6               [12] 2278 	mov	@r0,a
      0008EC E5*00            [12] 2279 	mov	a,_bp
      0008EE 24 0D            [12] 2280 	add	a,#0x0d
      0008F0 F8               [12] 2281 	mov	r0,a
      0008F1 08               [12] 2282 	inc	r0
      0008F2 86 04            [24] 2283 	mov	ar4,@r0
      0008F4 08               [12] 2284 	inc	r0
      0008F5 E6               [12] 2285 	mov	a,@r0
      0008F6 C4               [12] 2286 	swap	a
      0008F7 CC               [12] 2287 	xch	a,r4
      0008F8 C4               [12] 2288 	swap	a
      0008F9 54 0F            [12] 2289 	anl	a,#0x0f
      0008FB 6C               [12] 2290 	xrl	a,r4
      0008FC CC               [12] 2291 	xch	a,r4
      0008FD 54 0F            [12] 2292 	anl	a,#0x0f
      0008FF CC               [12] 2293 	xch	a,r4
      000900 6C               [12] 2294 	xrl	a,r4
      000901 CC               [12] 2295 	xch	a,r4
      000902 FD               [12] 2296 	mov	r5,a
      000903 08               [12] 2297 	inc	r0
      000904 E6               [12] 2298 	mov	a,@r0
      000905 C4               [12] 2299 	swap	a
      000906 54 F0            [12] 2300 	anl	a,#0xf0
      000908 4D               [12] 2301 	orl	a,r5
      000909 FD               [12] 2302 	mov	r5,a
      00090A E6               [12] 2303 	mov	a,@r0
      00090B C4               [12] 2304 	swap	a
      00090C 54 0F            [12] 2305 	anl	a,#0x0f
      00090E 30 E3 02         [24] 2306 	jnb	acc.3,00127$
      000911 44 F0            [12] 2307 	orl	a,#0xf0
      000913                       2308 00127$:
      000913 FE               [12] 2309 	mov	r6,a
      000914 33               [12] 2310 	rlc	a
      000915 95 E0            [12] 2311 	subb	a,acc
      000917 FF               [12] 2312 	mov	r7,a
      000918 E5*00            [12] 2313 	mov	a,_bp
      00091A 24 09            [12] 2314 	add	a,#0x09
      00091C F8               [12] 2315 	mov	r0,a
      00091D E6               [12] 2316 	mov	a,@r0
      00091E C3               [12] 2317 	clr	c
      00091F 9C               [12] 2318 	subb	a,r4
      000920 FC               [12] 2319 	mov	r4,a
      000921 08               [12] 2320 	inc	r0
      000922 E6               [12] 2321 	mov	a,@r0
      000923 9D               [12] 2322 	subb	a,r5
      000924 FD               [12] 2323 	mov	r5,a
      000925 08               [12] 2324 	inc	r0
      000926 E6               [12] 2325 	mov	a,@r0
      000927 9E               [12] 2326 	subb	a,r6
      000928 FE               [12] 2327 	mov	r6,a
      000929 08               [12] 2328 	inc	r0
      00092A E6               [12] 2329 	mov	a,@r0
      00092B 9F               [12] 2330 	subb	a,r7
      00092C FF               [12] 2331 	mov	r7,a
                                   2332 ;	C:\Users\Clovisf\Documents\ch552\bme680\BME680.c:182: P    = (uint32_t)((P * (uint32_t)3125));
      00092D C0 04            [24] 2333 	push	ar4
      00092F C0 05            [24] 2334 	push	ar5
      000931 C0 06            [24] 2335 	push	ar6
      000933 C0 07            [24] 2336 	push	ar7
                                   2337 ;	C:\Users\Clovisf\Documents\ch552\bme680\BME680.c:183: if (P < 0x80000000UL)
      000935 90 0C 35         [24] 2338 	mov	dptr,#0x0c35
      000938 E4               [12] 2339 	clr	a
      000939 F5 F0            [12] 2340 	mov	b,a
      00093B 12r00r00         [24] 2341 	lcall	__mullong
      00093E AC 82            [24] 2342 	mov	r4, dpl
      000940 AD 83            [24] 2343 	mov	r5, dph
      000942 AE F0            [24] 2344 	mov	r6, b
      000944 FF               [12] 2345 	mov	r7, a
      000945 E5 81            [12] 2346 	mov	a,sp
      000947 24 FC            [12] 2347 	add	a,#0xfc
      000949 F5 81            [12] 2348 	mov	sp,a
      00094B 74 80            [12] 2349 	mov	a,#0x100 - 0x80
      00094D 2F               [12] 2350 	add	a,r7
      00094E 40 56            [24] 2351 	jc	00104$
                                   2352 ;	C:\Users\Clovisf\Documents\ch552\bme680\BME680.c:184: P = (P << 1) / (uint32_t)var1;
      000950 E5*00            [12] 2353 	mov	a,_bp
      000952 24 0D            [12] 2354 	add	a,#0x0d
      000954 F8               [12] 2355 	mov	r0,a
      000955 EC               [12] 2356 	mov	a,r4
      000956 2C               [12] 2357 	add	a,r4
      000957 F6               [12] 2358 	mov	@r0,a
      000958 ED               [12] 2359 	mov	a,r5
      000959 33               [12] 2360 	rlc	a
      00095A 08               [12] 2361 	inc	r0
      00095B F6               [12] 2362 	mov	@r0,a
      00095C EE               [12] 2363 	mov	a,r6
      00095D 33               [12] 2364 	rlc	a
      00095E 08               [12] 2365 	inc	r0
      00095F F6               [12] 2366 	mov	@r0,a
      000960 EF               [12] 2367 	mov	a,r7
      000961 33               [12] 2368 	rlc	a
      000962 08               [12] 2369 	inc	r0
      000963 F6               [12] 2370 	mov	@r0,a
      000964 E5*00            [12] 2371 	mov	a,_bp
      000966 24 05            [12] 2372 	add	a,#0x05
      000968 F8               [12] 2373 	mov	r0,a
      000969 86 04            [24] 2374 	mov	ar4,@r0
      00096B 08               [12] 2375 	inc	r0
      00096C 86 05            [24] 2376 	mov	ar5,@r0
      00096E 08               [12] 2377 	inc	r0
      00096F 86 06            [24] 2378 	mov	ar6,@r0
      000971 08               [12] 2379 	inc	r0
      000972 86 07            [24] 2380 	mov	ar7,@r0
      000974 C0 04            [24] 2381 	push	ar4
      000976 C0 05            [24] 2382 	push	ar5
      000978 C0 06            [24] 2383 	push	ar6
      00097A C0 07            [24] 2384 	push	ar7
      00097C E5*00            [12] 2385 	mov	a,_bp
      00097E 24 0D            [12] 2386 	add	a,#0x0d
      000980 F8               [12] 2387 	mov	r0,a
      000981 86 82            [24] 2388 	mov	dpl, @r0
      000983 08               [12] 2389 	inc	r0
      000984 86 83            [24] 2390 	mov	dph, @r0
      000986 08               [12] 2391 	inc	r0
      000987 86 F0            [24] 2392 	mov	b, @r0
      000989 08               [12] 2393 	inc	r0
      00098A E6               [12] 2394 	mov	a, @r0
      00098B 12r00r00         [24] 2395 	lcall	__divulong
      00098E C8               [12] 2396 	xch	a,r0
      00098F E5*00            [12] 2397 	mov	a,_bp
      000991 24 09            [12] 2398 	add	a,#0x09
      000993 C8               [12] 2399 	xch	a,r0
      000994 A6 82            [24] 2400 	mov	@r0, dpl
      000996 08               [12] 2401 	inc	r0
      000997 A6 83            [24] 2402 	mov	@r0, dph
      000999 08               [12] 2403 	inc	r0
      00099A A6 F0            [24] 2404 	mov	@r0, b
      00099C 08               [12] 2405 	inc	r0
      00099D F6               [12] 2406 	mov	@r0,a
      00099E E5 81            [12] 2407 	mov	a,sp
      0009A0 24 FC            [12] 2408 	add	a,#0xfc
      0009A2 F5 81            [12] 2409 	mov	sp,a
      0009A4 80 57            [24] 2410 	sjmp	00105$
      0009A6                       2411 00104$:
                                   2412 ;	C:\Users\Clovisf\Documents\ch552\bme680\BME680.c:186: P = (P / (uint32_t)var1) * 2;
      0009A6 E5*00            [12] 2413 	mov	a,_bp
      0009A8 24 05            [12] 2414 	add	a,#0x05
      0009AA F8               [12] 2415 	mov	r0,a
      0009AB E5*00            [12] 2416 	mov	a,_bp
      0009AD 24 0D            [12] 2417 	add	a,#0x0d
      0009AF F9               [12] 2418 	mov	r1,a
      0009B0 E6               [12] 2419 	mov	a,@r0
      0009B1 F7               [12] 2420 	mov	@r1,a
      0009B2 08               [12] 2421 	inc	r0
      0009B3 E6               [12] 2422 	mov	a,@r0
      0009B4 09               [12] 2423 	inc	r1
      0009B5 F7               [12] 2424 	mov	@r1,a
      0009B6 08               [12] 2425 	inc	r0
      0009B7 E6               [12] 2426 	mov	a,@r0
      0009B8 09               [12] 2427 	inc	r1
      0009B9 F7               [12] 2428 	mov	@r1,a
      0009BA 08               [12] 2429 	inc	r0
      0009BB E6               [12] 2430 	mov	a,@r0
      0009BC 09               [12] 2431 	inc	r1
      0009BD F7               [12] 2432 	mov	@r1,a
      0009BE E5*00            [12] 2433 	mov	a,_bp
      0009C0 24 0D            [12] 2434 	add	a,#0x0d
      0009C2 F8               [12] 2435 	mov	r0,a
      0009C3 E6               [12] 2436 	mov	a,@r0
      0009C4 C0 E0            [24] 2437 	push	acc
      0009C6 08               [12] 2438 	inc	r0
      0009C7 E6               [12] 2439 	mov	a,@r0
      0009C8 C0 E0            [24] 2440 	push	acc
      0009CA 08               [12] 2441 	inc	r0
      0009CB E6               [12] 2442 	mov	a,@r0
      0009CC C0 E0            [24] 2443 	push	acc
      0009CE 08               [12] 2444 	inc	r0
      0009CF E6               [12] 2445 	mov	a,@r0
      0009D0 C0 E0            [24] 2446 	push	acc
      0009D2 8C 82            [24] 2447 	mov	dpl, r4
      0009D4 8D 83            [24] 2448 	mov	dph, r5
      0009D6 8E F0            [24] 2449 	mov	b, r6
      0009D8 EF               [12] 2450 	mov	a, r7
      0009D9 12r00r00         [24] 2451 	lcall	__divulong
      0009DC AC 82            [24] 2452 	mov	r4, dpl
      0009DE AD 83            [24] 2453 	mov	r5, dph
      0009E0 AE F0            [24] 2454 	mov	r6, b
      0009E2 FF               [12] 2455 	mov	r7, a
      0009E3 E5 81            [12] 2456 	mov	a,sp
      0009E5 24 FC            [12] 2457 	add	a,#0xfc
      0009E7 F5 81            [12] 2458 	mov	sp,a
      0009E9 E5*00            [12] 2459 	mov	a,_bp
      0009EB 24 09            [12] 2460 	add	a,#0x09
      0009ED F8               [12] 2461 	mov	r0,a
      0009EE EC               [12] 2462 	mov	a,r4
      0009EF 2C               [12] 2463 	add	a,r4
      0009F0 F6               [12] 2464 	mov	@r0,a
      0009F1 ED               [12] 2465 	mov	a,r5
      0009F2 33               [12] 2466 	rlc	a
      0009F3 08               [12] 2467 	inc	r0
      0009F4 F6               [12] 2468 	mov	@r0,a
      0009F5 EE               [12] 2469 	mov	a,r6
      0009F6 33               [12] 2470 	rlc	a
      0009F7 08               [12] 2471 	inc	r0
      0009F8 F6               [12] 2472 	mov	@r0,a
      0009F9 EF               [12] 2473 	mov	a,r7
      0009FA 33               [12] 2474 	rlc	a
      0009FB 08               [12] 2475 	inc	r0
      0009FC F6               [12] 2476 	mov	@r0,a
      0009FD                       2477 00105$:
                                   2478 ;	C:\Users\Clovisf\Documents\ch552\bme680\BME680.c:188: var1 = ((int32_t)_calib.P9 * (int32_t)(((P >> 3) * (P >> 3)) >> 13)) >> 12;
      0009FD E5*00            [12] 2479 	mov	a,_bp
      0009FF 24 0D            [12] 2480 	add	a,#0x0d
      000A01 F8               [12] 2481 	mov	r0,a
      000A02 A6*12            [24] 2482 	mov	@r0,(__calib + 0x0012)
      000A04 08               [12] 2483 	inc	r0
      000A05 E5*13            [12] 2484 	mov	a,((__calib + 0x0012) + 1)
      000A07 F6               [12] 2485 	mov	@r0,a
      000A08 33               [12] 2486 	rlc	a
      000A09 95 E0            [12] 2487 	subb	a,acc
      000A0B 08               [12] 2488 	inc	r0
      000A0C F6               [12] 2489 	mov	@r0,a
      000A0D 08               [12] 2490 	inc	r0
      000A0E F6               [12] 2491 	mov	@r0,a
      000A0F E5*00            [12] 2492 	mov	a,_bp
      000A11 24 09            [12] 2493 	add	a,#0x09
      000A13 F8               [12] 2494 	mov	r0,a
      000A14 86 04            [24] 2495 	mov	ar4,@r0
      000A16 08               [12] 2496 	inc	r0
      000A17 E6               [12] 2497 	mov	a,@r0
      000A18 C4               [12] 2498 	swap	a
      000A19 23               [12] 2499 	rl	a
      000A1A CC               [12] 2500 	xch	a,r4
      000A1B C4               [12] 2501 	swap	a
      000A1C 23               [12] 2502 	rl	a
      000A1D 54 1F            [12] 2503 	anl	a,#0x1f
      000A1F 6C               [12] 2504 	xrl	a,r4
      000A20 CC               [12] 2505 	xch	a,r4
      000A21 54 1F            [12] 2506 	anl	a,#0x1f
      000A23 CC               [12] 2507 	xch	a,r4
      000A24 6C               [12] 2508 	xrl	a,r4
      000A25 CC               [12] 2509 	xch	a,r4
      000A26 FD               [12] 2510 	mov	r5,a
      000A27 08               [12] 2511 	inc	r0
      000A28 E6               [12] 2512 	mov	a,@r0
      000A29 C4               [12] 2513 	swap	a
      000A2A 23               [12] 2514 	rl	a
      000A2B 54 E0            [12] 2515 	anl	a,#0xe0
      000A2D 4D               [12] 2516 	orl	a,r5
      000A2E FD               [12] 2517 	mov	r5,a
      000A2F 86 06            [24] 2518 	mov	ar6,@r0
      000A31 08               [12] 2519 	inc	r0
      000A32 E6               [12] 2520 	mov	a,@r0
      000A33 C4               [12] 2521 	swap	a
      000A34 23               [12] 2522 	rl	a
      000A35 CE               [12] 2523 	xch	a,r6
      000A36 C4               [12] 2524 	swap	a
      000A37 23               [12] 2525 	rl	a
      000A38 54 1F            [12] 2526 	anl	a,#0x1f
      000A3A 6E               [12] 2527 	xrl	a,r6
      000A3B CE               [12] 2528 	xch	a,r6
      000A3C 54 1F            [12] 2529 	anl	a,#0x1f
      000A3E CE               [12] 2530 	xch	a,r6
      000A3F 6E               [12] 2531 	xrl	a,r6
      000A40 CE               [12] 2532 	xch	a,r6
      000A41 FF               [12] 2533 	mov	r7,a
      000A42 C0 04            [24] 2534 	push	ar4
      000A44 C0 05            [24] 2535 	push	ar5
      000A46 C0 06            [24] 2536 	push	ar6
      000A48 C0 07            [24] 2537 	push	ar7
      000A4A 8C 82            [24] 2538 	mov	dpl, r4
      000A4C 8D 83            [24] 2539 	mov	dph, r5
      000A4E 8E F0            [24] 2540 	mov	b, r6
      000A50 EF               [12] 2541 	mov	a, r7
      000A51 12r00r00         [24] 2542 	lcall	__mullong
      000A54 AD 83            [24] 2543 	mov	r5, dph
      000A56 AE F0            [24] 2544 	mov	r6, b
      000A58 FF               [12] 2545 	mov	r7, a
      000A59 E5 81            [12] 2546 	mov	a,sp
      000A5B 24 FC            [12] 2547 	add	a,#0xfc
      000A5D F5 81            [12] 2548 	mov	sp,a
      000A5F 8D 04            [24] 2549 	mov	ar4,r5
      000A61 EE               [12] 2550 	mov	a,r6
      000A62 C4               [12] 2551 	swap	a
      000A63 03               [12] 2552 	rr	a
      000A64 CC               [12] 2553 	xch	a,r4
      000A65 C4               [12] 2554 	swap	a
      000A66 03               [12] 2555 	rr	a
      000A67 54 07            [12] 2556 	anl	a,#0x07
      000A69 6C               [12] 2557 	xrl	a,r4
      000A6A CC               [12] 2558 	xch	a,r4
      000A6B 54 07            [12] 2559 	anl	a,#0x07
      000A6D CC               [12] 2560 	xch	a,r4
      000A6E 6C               [12] 2561 	xrl	a,r4
      000A6F CC               [12] 2562 	xch	a,r4
      000A70 FD               [12] 2563 	mov	r5,a
      000A71 EF               [12] 2564 	mov	a,r7
      000A72 C4               [12] 2565 	swap	a
      000A73 03               [12] 2566 	rr	a
      000A74 54 F8            [12] 2567 	anl	a,#0xf8
      000A76 4D               [12] 2568 	orl	a,r5
      000A77 FD               [12] 2569 	mov	r5,a
      000A78 EF               [12] 2570 	mov	a,r7
      000A79 C4               [12] 2571 	swap	a
      000A7A 03               [12] 2572 	rr	a
      000A7B 54 07            [12] 2573 	anl	a,#0x07
      000A7D FE               [12] 2574 	mov	r6,a
      000A7E 7F 00            [12] 2575 	mov	r7,#0x00
      000A80 C0 04            [24] 2576 	push	ar4
      000A82 C0 05            [24] 2577 	push	ar5
      000A84 C0 06            [24] 2578 	push	ar6
      000A86 C0 07            [24] 2579 	push	ar7
      000A88 E5*00            [12] 2580 	mov	a,_bp
      000A8A 24 0D            [12] 2581 	add	a,#0x0d
      000A8C F8               [12] 2582 	mov	r0,a
      000A8D 86 82            [24] 2583 	mov	dpl, @r0
      000A8F 08               [12] 2584 	inc	r0
      000A90 86 83            [24] 2585 	mov	dph, @r0
      000A92 08               [12] 2586 	inc	r0
      000A93 86 F0            [24] 2587 	mov	b, @r0
      000A95 08               [12] 2588 	inc	r0
      000A96 E6               [12] 2589 	mov	a, @r0
      000A97 12r00r00         [24] 2590 	lcall	__mullong
      000A9A AD 83            [24] 2591 	mov	r5, dph
      000A9C AE F0            [24] 2592 	mov	r6, b
      000A9E FF               [12] 2593 	mov	r7, a
      000A9F E5 81            [12] 2594 	mov	a,sp
      000AA1 24 FC            [12] 2595 	add	a,#0xfc
      000AA3 F5 81            [12] 2596 	mov	sp,a
      000AA5 E5*00            [12] 2597 	mov	a,_bp
      000AA7 24 0D            [12] 2598 	add	a,#0x0d
      000AA9 F8               [12] 2599 	mov	r0,a
      000AAA A6 05            [24] 2600 	mov	@r0,ar5
      000AAC EE               [12] 2601 	mov	a,r6
      000AAD C4               [12] 2602 	swap	a
      000AAE C6               [12] 2603 	xch	a,@r0
      000AAF C4               [12] 2604 	swap	a
      000AB0 54 0F            [12] 2605 	anl	a,#0x0f
      000AB2 66               [12] 2606 	xrl	a,@r0
      000AB3 C6               [12] 2607 	xch	a,@r0
      000AB4 54 0F            [12] 2608 	anl	a,#0x0f
      000AB6 C6               [12] 2609 	xch	a,@r0
      000AB7 66               [12] 2610 	xrl	a,@r0
      000AB8 C6               [12] 2611 	xch	a,@r0
      000AB9 08               [12] 2612 	inc	r0
      000ABA F6               [12] 2613 	mov	@r0,a
      000ABB EF               [12] 2614 	mov	a,r7
      000ABC C4               [12] 2615 	swap	a
      000ABD 54 F0            [12] 2616 	anl	a,#0xf0
      000ABF 46               [12] 2617 	orl	a,@r0
      000AC0 F6               [12] 2618 	mov	@r0,a
      000AC1 EF               [12] 2619 	mov	a,r7
      000AC2 C4               [12] 2620 	swap	a
      000AC3 54 0F            [12] 2621 	anl	a,#0x0f
      000AC5 30 E3 02         [24] 2622 	jnb	acc.3,00129$
      000AC8 44 F0            [12] 2623 	orl	a,#0xf0
      000ACA                       2624 00129$:
      000ACA 08               [12] 2625 	inc	r0
      000ACB F6               [12] 2626 	mov	@r0,a
      000ACC 33               [12] 2627 	rlc	a
      000ACD 95 E0            [12] 2628 	subb	a,acc
      000ACF 08               [12] 2629 	inc	r0
      000AD0 F6               [12] 2630 	mov	@r0,a
                                   2631 ;	C:\Users\Clovisf\Documents\ch552\bme680\BME680.c:189: var2 = ((int32_t)(P >> 2) * (int32_t)_calib.P8) >> 13;
      000AD1 E5*00            [12] 2632 	mov	a,_bp
      000AD3 24 09            [12] 2633 	add	a,#0x09
      000AD5 F8               [12] 2634 	mov	r0,a
      000AD6 08               [12] 2635 	inc	r0
      000AD7 08               [12] 2636 	inc	r0
      000AD8 08               [12] 2637 	inc	r0
      000AD9 E6               [12] 2638 	mov	a,@r0
      000ADA C3               [12] 2639 	clr	c
      000ADB 13               [12] 2640 	rrc	a
      000ADC FF               [12] 2641 	mov	r7,a
      000ADD 18               [12] 2642 	dec	r0
      000ADE E6               [12] 2643 	mov	a,@r0
      000ADF 13               [12] 2644 	rrc	a
      000AE0 FE               [12] 2645 	mov	r6,a
      000AE1 18               [12] 2646 	dec	r0
      000AE2 E6               [12] 2647 	mov	a,@r0
      000AE3 13               [12] 2648 	rrc	a
      000AE4 FB               [12] 2649 	mov	r3,a
      000AE5 18               [12] 2650 	dec	r0
      000AE6 E6               [12] 2651 	mov	a,@r0
      000AE7 13               [12] 2652 	rrc	a
      000AE8 FA               [12] 2653 	mov	r2,a
      000AE9 EF               [12] 2654 	mov	a,r7
      000AEA C3               [12] 2655 	clr	c
      000AEB 13               [12] 2656 	rrc	a
      000AEC FF               [12] 2657 	mov	r7,a
      000AED EE               [12] 2658 	mov	a,r6
      000AEE 13               [12] 2659 	rrc	a
      000AEF FE               [12] 2660 	mov	r6,a
      000AF0 EB               [12] 2661 	mov	a,r3
      000AF1 13               [12] 2662 	rrc	a
      000AF2 FB               [12] 2663 	mov	r3,a
      000AF3 EA               [12] 2664 	mov	a,r2
      000AF4 13               [12] 2665 	rrc	a
      000AF5 FA               [12] 2666 	mov	r2,a
      000AF6 E5*00            [12] 2667 	mov	a,_bp
      000AF8 24 05            [12] 2668 	add	a,#0x05
      000AFA F8               [12] 2669 	mov	r0,a
      000AFB A6 02            [24] 2670 	mov	@r0,ar2
      000AFD 08               [12] 2671 	inc	r0
      000AFE A6 03            [24] 2672 	mov	@r0,ar3
      000B00 08               [12] 2673 	inc	r0
      000B01 A6 06            [24] 2674 	mov	@r0,ar6
      000B03 08               [12] 2675 	inc	r0
      000B04 A6 07            [24] 2676 	mov	@r0,ar7
      000B06 AC*10            [24] 2677 	mov	r4,(__calib + 0x0010)
      000B08 E5*11            [12] 2678 	mov	a,((__calib + 0x0010) + 1)
      000B0A FD               [12] 2679 	mov	r5,a
      000B0B 33               [12] 2680 	rlc	a
      000B0C 95 E0            [12] 2681 	subb	a,acc
      000B0E FE               [12] 2682 	mov	r6,a
      000B0F FF               [12] 2683 	mov	r7,a
      000B10 C0 04            [24] 2684 	push	ar4
      000B12 C0 05            [24] 2685 	push	ar5
      000B14 C0 06            [24] 2686 	push	ar6
      000B16 C0 07            [24] 2687 	push	ar7
      000B18 E5*00            [12] 2688 	mov	a,_bp
      000B1A 24 05            [12] 2689 	add	a,#0x05
      000B1C F8               [12] 2690 	mov	r0,a
      000B1D 86 82            [24] 2691 	mov	dpl, @r0
      000B1F 08               [12] 2692 	inc	r0
      000B20 86 83            [24] 2693 	mov	dph, @r0
      000B22 08               [12] 2694 	inc	r0
      000B23 86 F0            [24] 2695 	mov	b, @r0
      000B25 08               [12] 2696 	inc	r0
      000B26 E6               [12] 2697 	mov	a, @r0
      000B27 12r00r00         [24] 2698 	lcall	__mullong
      000B2A AD 83            [24] 2699 	mov	r5, dph
      000B2C AE F0            [24] 2700 	mov	r6, b
      000B2E FF               [12] 2701 	mov	r7, a
      000B2F E5 81            [12] 2702 	mov	a,sp
      000B31 24 FC            [12] 2703 	add	a,#0xfc
      000B33 F5 81            [12] 2704 	mov	sp,a
      000B35 E5*00            [12] 2705 	mov	a,_bp
      000B37 24 11            [12] 2706 	add	a,#0x11
      000B39 F8               [12] 2707 	mov	r0,a
      000B3A A6 05            [24] 2708 	mov	@r0,ar5
      000B3C EE               [12] 2709 	mov	a,r6
      000B3D C4               [12] 2710 	swap	a
      000B3E 03               [12] 2711 	rr	a
      000B3F C6               [12] 2712 	xch	a,@r0
      000B40 C4               [12] 2713 	swap	a
      000B41 03               [12] 2714 	rr	a
      000B42 54 07            [12] 2715 	anl	a,#0x07
      000B44 66               [12] 2716 	xrl	a,@r0
      000B45 C6               [12] 2717 	xch	a,@r0
      000B46 54 07            [12] 2718 	anl	a,#0x07
      000B48 C6               [12] 2719 	xch	a,@r0
      000B49 66               [12] 2720 	xrl	a,@r0
      000B4A C6               [12] 2721 	xch	a,@r0
      000B4B 08               [12] 2722 	inc	r0
      000B4C F6               [12] 2723 	mov	@r0,a
      000B4D EF               [12] 2724 	mov	a,r7
      000B4E C4               [12] 2725 	swap	a
      000B4F 03               [12] 2726 	rr	a
      000B50 54 F8            [12] 2727 	anl	a,#0xf8
      000B52 46               [12] 2728 	orl	a,@r0
      000B53 F6               [12] 2729 	mov	@r0,a
      000B54 EF               [12] 2730 	mov	a,r7
      000B55 C4               [12] 2731 	swap	a
      000B56 03               [12] 2732 	rr	a
      000B57 54 07            [12] 2733 	anl	a,#0x07
      000B59 30 E2 02         [24] 2734 	jnb	acc.2,00130$
      000B5C 44 F8            [12] 2735 	orl	a,#0xf8
      000B5E                       2736 00130$:
      000B5E 08               [12] 2737 	inc	r0
      000B5F F6               [12] 2738 	mov	@r0,a
      000B60 33               [12] 2739 	rlc	a
      000B61 95 E0            [12] 2740 	subb	a,acc
      000B63 08               [12] 2741 	inc	r0
      000B64 F6               [12] 2742 	mov	@r0,a
                                   2743 ;	C:\Users\Clovisf\Documents\ch552\bme680\BME680.c:190: var3 = ((int32_t)(P >> 8) * (int32_t)(P >> 8) * (int32_t)(P >> 8) *
      000B65 E5*00            [12] 2744 	mov	a,_bp
      000B67 24 09            [12] 2745 	add	a,#0x09
      000B69 F8               [12] 2746 	mov	r0,a
      000B6A 08               [12] 2747 	inc	r0
      000B6B 86 02            [24] 2748 	mov	ar2,@r0
      000B6D 08               [12] 2749 	inc	r0
      000B6E 86 03            [24] 2750 	mov	ar3,@r0
      000B70 08               [12] 2751 	inc	r0
      000B71 86 06            [24] 2752 	mov	ar6,@r0
      000B73 7F 00            [12] 2753 	mov	r7,#0x00
      000B75 E5*00            [12] 2754 	mov	a,_bp
      000B77 24 05            [12] 2755 	add	a,#0x05
      000B79 F8               [12] 2756 	mov	r0,a
      000B7A A6 02            [24] 2757 	mov	@r0,ar2
      000B7C 08               [12] 2758 	inc	r0
      000B7D A6 03            [24] 2759 	mov	@r0,ar3
      000B7F 08               [12] 2760 	inc	r0
      000B80 A6 06            [24] 2761 	mov	@r0,ar6
      000B82 08               [12] 2762 	inc	r0
      000B83 A6 07            [24] 2763 	mov	@r0,ar7
      000B85 E5*00            [12] 2764 	mov	a,_bp
      000B87 24 05            [12] 2765 	add	a,#0x05
      000B89 F8               [12] 2766 	mov	r0,a
      000B8A E6               [12] 2767 	mov	a,@r0
      000B8B C0 E0            [24] 2768 	push	acc
      000B8D 08               [12] 2769 	inc	r0
      000B8E E6               [12] 2770 	mov	a,@r0
      000B8F C0 E0            [24] 2771 	push	acc
      000B91 08               [12] 2772 	inc	r0
      000B92 E6               [12] 2773 	mov	a,@r0
      000B93 C0 E0            [24] 2774 	push	acc
      000B95 08               [12] 2775 	inc	r0
      000B96 E6               [12] 2776 	mov	a,@r0
      000B97 C0 E0            [24] 2777 	push	acc
      000B99 E5*00            [12] 2778 	mov	a,_bp
      000B9B 24 05            [12] 2779 	add	a,#0x05
      000B9D F8               [12] 2780 	mov	r0,a
      000B9E 86 82            [24] 2781 	mov	dpl, @r0
      000BA0 08               [12] 2782 	inc	r0
      000BA1 86 83            [24] 2783 	mov	dph, @r0
      000BA3 08               [12] 2784 	inc	r0
      000BA4 86 F0            [24] 2785 	mov	b, @r0
      000BA6 E4               [12] 2786 	clr	a
      000BA7 12r00r00         [24] 2787 	lcall	__mullong
      000BAA AC 82            [24] 2788 	mov	r4, dpl
      000BAC AD 83            [24] 2789 	mov	r5, dph
      000BAE AE F0            [24] 2790 	mov	r6, b
      000BB0 FF               [12] 2791 	mov	r7, a
      000BB1 E5 81            [12] 2792 	mov	a,sp
      000BB3 24 FC            [12] 2793 	add	a,#0xfc
      000BB5 F5 81            [12] 2794 	mov	sp,a
      000BB7 E5*00            [12] 2795 	mov	a,_bp
      000BB9 24 05            [12] 2796 	add	a,#0x05
      000BBB F8               [12] 2797 	mov	r0,a
      000BBC E6               [12] 2798 	mov	a,@r0
      000BBD C0 E0            [24] 2799 	push	acc
      000BBF 08               [12] 2800 	inc	r0
      000BC0 E6               [12] 2801 	mov	a,@r0
      000BC1 C0 E0            [24] 2802 	push	acc
      000BC3 08               [12] 2803 	inc	r0
      000BC4 E6               [12] 2804 	mov	a,@r0
      000BC5 C0 E0            [24] 2805 	push	acc
      000BC7 08               [12] 2806 	inc	r0
      000BC8 E6               [12] 2807 	mov	a,@r0
      000BC9 C0 E0            [24] 2808 	push	acc
                                   2809 ;	C:\Users\Clovisf\Documents\ch552\bme680\BME680.c:191: (int32_t)_calib.P10) >> 17;
      000BCB 8C 82            [24] 2810 	mov	dpl, r4
      000BCD 8D 83            [24] 2811 	mov	dph, r5
      000BCF 8E F0            [24] 2812 	mov	b, r6
      000BD1 EF               [12] 2813 	mov	a, r7
      000BD2 12r00r00         [24] 2814 	lcall	__mullong
      000BD5 C8               [12] 2815 	xch	a,r0
      000BD6 E5*00            [12] 2816 	mov	a,_bp
      000BD8 24 05            [12] 2817 	add	a,#0x05
      000BDA C8               [12] 2818 	xch	a,r0
      000BDB A6 82            [24] 2819 	mov	@r0, dpl
      000BDD 08               [12] 2820 	inc	r0
      000BDE A6 83            [24] 2821 	mov	@r0, dph
      000BE0 08               [12] 2822 	inc	r0
      000BE1 A6 F0            [24] 2823 	mov	@r0, b
      000BE3 08               [12] 2824 	inc	r0
      000BE4 F6               [12] 2825 	mov	@r0,a
      000BE5 E5 81            [12] 2826 	mov	a,sp
      000BE7 24 FC            [12] 2827 	add	a,#0xfc
      000BE9 F5 81            [12] 2828 	mov	sp,a
      000BEB AA*14            [24] 2829 	mov	r2,(__calib + 0x0014)
      000BED 7B 00            [12] 2830 	mov	r3,#0x00
      000BEF 7E 00            [12] 2831 	mov	r6,#0x00
      000BF1 7F 00            [12] 2832 	mov	r7,#0x00
      000BF3 C0 02            [24] 2833 	push	ar2
      000BF5 C0 03            [24] 2834 	push	ar3
      000BF7 C0 06            [24] 2835 	push	ar6
      000BF9 C0 07            [24] 2836 	push	ar7
      000BFB E5*00            [12] 2837 	mov	a,_bp
      000BFD 24 05            [12] 2838 	add	a,#0x05
      000BFF F8               [12] 2839 	mov	r0,a
      000C00 86 82            [24] 2840 	mov	dpl, @r0
      000C02 08               [12] 2841 	inc	r0
      000C03 86 83            [24] 2842 	mov	dph, @r0
      000C05 08               [12] 2843 	inc	r0
      000C06 86 F0            [24] 2844 	mov	b, @r0
      000C08 08               [12] 2845 	inc	r0
      000C09 E6               [12] 2846 	mov	a, @r0
      000C0A 12r00r00         [24] 2847 	lcall	__mullong
      000C0D AE F0            [24] 2848 	mov	r6, b
      000C0F FF               [12] 2849 	mov	r7, a
      000C10 E5 81            [12] 2850 	mov	a,sp
      000C12 24 FC            [12] 2851 	add	a,#0xfc
      000C14 F5 81            [12] 2852 	mov	sp,a
      000C16 E5*00            [12] 2853 	mov	a,_bp
      000C18 24 15            [12] 2854 	add	a,#0x15
      000C1A F8               [12] 2855 	mov	r0,a
      000C1B A6 06            [24] 2856 	mov	@r0,ar6
      000C1D EF               [12] 2857 	mov	a,r7
      000C1E A2 E7            [12] 2858 	mov	c,acc.7
      000C20 13               [12] 2859 	rrc	a
      000C21 C6               [12] 2860 	xch	a,@r0
      000C22 13               [12] 2861 	rrc	a
      000C23 C6               [12] 2862 	xch	a,@r0
      000C24 08               [12] 2863 	inc	r0
      000C25 F6               [12] 2864 	mov	@r0,a
      000C26 33               [12] 2865 	rlc	a
      000C27 95 E0            [12] 2866 	subb	a,acc
      000C29 08               [12] 2867 	inc	r0
      000C2A F6               [12] 2868 	mov	@r0,a
      000C2B 08               [12] 2869 	inc	r0
      000C2C F6               [12] 2870 	mov	@r0,a
                                   2871 ;	C:\Users\Clovisf\Documents\ch552\bme680\BME680.c:193: P = (uint32_t)((int32_t)P + ((var1 + var2 + var3 + ((int32_t)_calib.P7 << 7)) >> 4));
      000C2D E5*00            [12] 2872 	mov	a,_bp
      000C2F 24 09            [12] 2873 	add	a,#0x09
      000C31 E5*00            [12] 2874 	mov	a,_bp
      000C33 24 0D            [12] 2875 	add	a,#0x0d
      000C35 F8               [12] 2876 	mov	r0,a
      000C36 E5*00            [12] 2877 	mov	a,_bp
      000C38 24 11            [12] 2878 	add	a,#0x11
      000C3A F9               [12] 2879 	mov	r1,a
      000C3B E7               [12] 2880 	mov	a,@r1
      000C3C 26               [12] 2881 	add	a, @r0
      000C3D FC               [12] 2882 	mov	r4,a
      000C3E 09               [12] 2883 	inc	r1
      000C3F E7               [12] 2884 	mov	a,@r1
      000C40 08               [12] 2885 	inc	r0
      000C41 36               [12] 2886 	addc	a, @r0
      000C42 FD               [12] 2887 	mov	r5,a
      000C43 09               [12] 2888 	inc	r1
      000C44 E7               [12] 2889 	mov	a,@r1
      000C45 08               [12] 2890 	inc	r0
      000C46 36               [12] 2891 	addc	a, @r0
      000C47 FE               [12] 2892 	mov	r6,a
      000C48 09               [12] 2893 	inc	r1
      000C49 E7               [12] 2894 	mov	a,@r1
      000C4A 08               [12] 2895 	inc	r0
      000C4B 36               [12] 2896 	addc	a, @r0
      000C4C FF               [12] 2897 	mov	r7,a
      000C4D E5*00            [12] 2898 	mov	a,_bp
      000C4F 24 15            [12] 2899 	add	a,#0x15
      000C51 F8               [12] 2900 	mov	r0,a
      000C52 E5*00            [12] 2901 	mov	a,_bp
      000C54 24 0D            [12] 2902 	add	a,#0x0d
      000C56 F9               [12] 2903 	mov	r1,a
      000C57 E6               [12] 2904 	mov	a,@r0
      000C58 2C               [12] 2905 	add	a, r4
      000C59 F7               [12] 2906 	mov	@r1,a
      000C5A 08               [12] 2907 	inc	r0
      000C5B E6               [12] 2908 	mov	a,@r0
      000C5C 3D               [12] 2909 	addc	a, r5
      000C5D 09               [12] 2910 	inc	r1
      000C5E F7               [12] 2911 	mov	@r1,a
      000C5F 08               [12] 2912 	inc	r0
      000C60 E6               [12] 2913 	mov	a,@r0
      000C61 3E               [12] 2914 	addc	a, r6
      000C62 09               [12] 2915 	inc	r1
      000C63 F7               [12] 2916 	mov	@r1,a
      000C64 08               [12] 2917 	inc	r0
      000C65 E6               [12] 2918 	mov	a,@r0
      000C66 3F               [12] 2919 	addc	a, r7
      000C67 09               [12] 2920 	inc	r1
      000C68 F7               [12] 2921 	mov	@r1,a
      000C69 E5*0F            [12] 2922 	mov	a,(__calib + 0x000f)
      000C6B FA               [12] 2923 	mov	r2,a
      000C6C 33               [12] 2924 	rlc	a
      000C6D 95 E0            [12] 2925 	subb	a,acc
      000C6F FB               [12] 2926 	mov	r3,a
      000C70 FE               [12] 2927 	mov	r6,a
      000C71 54 01            [12] 2928 	anl	a,#0x01
      000C73 A2 E0            [12] 2929 	mov	c,acc.0
      000C75 CE               [12] 2930 	xch	a,r6
      000C76 13               [12] 2931 	rrc	a
      000C77 CE               [12] 2932 	xch	a,r6
      000C78 13               [12] 2933 	rrc	a
      000C79 CE               [12] 2934 	xch	a,r6
      000C7A FF               [12] 2935 	mov	r7,a
      000C7B EB               [12] 2936 	mov	a,r3
      000C7C C3               [12] 2937 	clr	c
      000C7D 13               [12] 2938 	rrc	a
      000C7E 4E               [12] 2939 	orl	a,r6
      000C7F FE               [12] 2940 	mov	r6,a
      000C80 EB               [12] 2941 	mov	a,r3
      000C81 54 01            [12] 2942 	anl	a,#0x01
      000C83 A2 E0            [12] 2943 	mov	c,acc.0
      000C85 CA               [12] 2944 	xch	a,r2
      000C86 13               [12] 2945 	rrc	a
      000C87 CA               [12] 2946 	xch	a,r2
      000C88 13               [12] 2947 	rrc	a
      000C89 CA               [12] 2948 	xch	a,r2
      000C8A FB               [12] 2949 	mov	r3,a
      000C8B E5*00            [12] 2950 	mov	a,_bp
      000C8D 24 0D            [12] 2951 	add	a,#0x0d
      000C8F F8               [12] 2952 	mov	r0,a
      000C90 EA               [12] 2953 	mov	a,r2
      000C91 26               [12] 2954 	add	a, @r0
      000C92 FA               [12] 2955 	mov	r2,a
      000C93 EB               [12] 2956 	mov	a,r3
      000C94 08               [12] 2957 	inc	r0
      000C95 36               [12] 2958 	addc	a, @r0
      000C96 FB               [12] 2959 	mov	r3,a
      000C97 EE               [12] 2960 	mov	a,r6
      000C98 08               [12] 2961 	inc	r0
      000C99 36               [12] 2962 	addc	a, @r0
      000C9A FE               [12] 2963 	mov	r6,a
      000C9B EF               [12] 2964 	mov	a,r7
      000C9C 08               [12] 2965 	inc	r0
      000C9D 36               [12] 2966 	addc	a, @r0
      000C9E FF               [12] 2967 	mov	r7,a
      000C9F EB               [12] 2968 	mov	a,r3
      000CA0 C4               [12] 2969 	swap	a
      000CA1 CA               [12] 2970 	xch	a,r2
      000CA2 C4               [12] 2971 	swap	a
      000CA3 54 0F            [12] 2972 	anl	a,#0x0f
      000CA5 6A               [12] 2973 	xrl	a,r2
      000CA6 CA               [12] 2974 	xch	a,r2
      000CA7 54 0F            [12] 2975 	anl	a,#0x0f
      000CA9 CA               [12] 2976 	xch	a,r2
      000CAA 6A               [12] 2977 	xrl	a,r2
      000CAB CA               [12] 2978 	xch	a,r2
      000CAC FB               [12] 2979 	mov	r3,a
      000CAD EE               [12] 2980 	mov	a,r6
      000CAE C4               [12] 2981 	swap	a
      000CAF 54 F0            [12] 2982 	anl	a,#0xf0
      000CB1 4B               [12] 2983 	orl	a,r3
      000CB2 FB               [12] 2984 	mov	r3,a
      000CB3 EF               [12] 2985 	mov	a,r7
      000CB4 C4               [12] 2986 	swap	a
      000CB5 CE               [12] 2987 	xch	a,r6
      000CB6 C4               [12] 2988 	swap	a
      000CB7 54 0F            [12] 2989 	anl	a,#0x0f
      000CB9 6E               [12] 2990 	xrl	a,r6
      000CBA CE               [12] 2991 	xch	a,r6
      000CBB 54 0F            [12] 2992 	anl	a,#0x0f
      000CBD CE               [12] 2993 	xch	a,r6
      000CBE 6E               [12] 2994 	xrl	a,r6
      000CBF CE               [12] 2995 	xch	a,r6
      000CC0 30 E3 02         [24] 2996 	jnb	acc.3,00131$
      000CC3 44 F0            [12] 2997 	orl	a,#0xfffffff0
      000CC5                       2998 00131$:
      000CC5 FF               [12] 2999 	mov	r7,a
      000CC6 E5*00            [12] 3000 	mov	a,_bp
      000CC8 24 09            [12] 3001 	add	a,#0x09
      000CCA F8               [12] 3002 	mov	r0,a
      000CCB EA               [12] 3003 	mov	a,r2
      000CCC 26               [12] 3004 	add	a, @r0
      000CCD FA               [12] 3005 	mov	r2,a
      000CCE EB               [12] 3006 	mov	a,r3
      000CCF 08               [12] 3007 	inc	r0
      000CD0 36               [12] 3008 	addc	a, @r0
      000CD1 FB               [12] 3009 	mov	r3,a
      000CD2 EE               [12] 3010 	mov	a,r6
      000CD3 08               [12] 3011 	inc	r0
      000CD4 36               [12] 3012 	addc	a, @r0
      000CD5 FE               [12] 3013 	mov	r6,a
      000CD6 EF               [12] 3014 	mov	a,r7
      000CD7 08               [12] 3015 	inc	r0
      000CD8 36               [12] 3016 	addc	a, @r0
                                   3017 ;	C:\Users\Clovisf\Documents\ch552\bme680\BME680.c:194: return P;   // Pa
      000CD9 8A 82            [24] 3018 	mov	dpl,r2
      000CDB 8B 83            [24] 3019 	mov	dph,r3
      000CDD 8E F0            [24] 3020 	mov	b,r6
      000CDF                       3021 00106$:
                                   3022 ;	C:\Users\Clovisf\Documents\ch552\bme680\BME680.c:195: }
      000CDF 85*00 81         [24] 3023 	mov	sp,_bp
      000CE2 D0*00            [24] 3024 	pop	_bp
      000CE4 22               [24] 3025 	ret
                                   3026 ;------------------------------------------------------------
                                   3027 ;Allocation info for local variables in function 'compensate_humidity'
                                   3028 ;------------------------------------------------------------
                                   3029 ;adc_H         Allocated to registers r6 r7 
                                   3030 ;var1          Allocated to stack - _bp +9 +4 
                                   3031 ;var2          Allocated to registers r4 r5 r6 r7 
                                   3032 ;var3          Allocated to stack - _bp +13 +4 
                                   3033 ;var4          Allocated to stack - _bp +17 +4 
                                   3034 ;var5          Allocated to registers r4 r5 r6 r7 
                                   3035 ;var6          Allocated to registers r4 r5 r6 r7 
                                   3036 ;H             Allocated to registers r4 r5 r6 r7 
                                   3037 ;sloc0         Allocated to stack - _bp +1 +4 
                                   3038 ;sloc1         Allocated to stack - _bp +5 +4 
                                   3039 ;------------------------------------------------------------
                                   3040 ;	C:\Users\Clovisf\Documents\ch552\bme680\BME680.c:197: static uint32_t compensate_humidity(uint16_t adc_H) {
                                   3041 ;	-----------------------------------------
                                   3042 ;	 function compensate_humidity
                                   3043 ;	-----------------------------------------
      000CE5                       3044 _compensate_humidity:
      000CE5 C0*00            [24] 3045 	push	_bp
      000CE7 E5 81            [12] 3046 	mov	a,sp
      000CE9 F5*00            [12] 3047 	mov	_bp,a
      000CEB 24 14            [12] 3048 	add	a,#0x14
      000CED F5 81            [12] 3049 	mov	sp,a
      000CEF AE 82            [24] 3050 	mov	r6, dpl
      000CF1 AF 83            [24] 3051 	mov	r7, dph
                                   3052 ;	C:\Users\Clovisf\Documents\ch552\bme680\BME680.c:201: var1 = (int32_t)adc_H - ((int32_t)((int32_t)_calib.H1 << 4)) -
      000CF3 A8*00            [24] 3053 	mov	r0,_bp
      000CF5 08               [12] 3054 	inc	r0
      000CF6 A6 06            [24] 3055 	mov	@r0,ar6
      000CF8 08               [12] 3056 	inc	r0
      000CF9 A6 07            [24] 3057 	mov	@r0,ar7
      000CFB 08               [12] 3058 	inc	r0
      000CFC 76 00            [12] 3059 	mov	@r0,#0x00
      000CFE 08               [12] 3060 	inc	r0
      000CFF 76 00            [12] 3061 	mov	@r0,#0x00
      000D01 AA*15            [24] 3062 	mov	r2,(__calib + 0x0015)
      000D03 AB*16            [24] 3063 	mov	r3,((__calib + 0x0015) + 1)
      000D05 E4               [12] 3064 	clr	a
      000D06 FE               [12] 3065 	mov	r6,a
      000D07 C4               [12] 3066 	swap	a
      000D08 54 F0            [12] 3067 	anl	a,#0xf0
      000D0A CE               [12] 3068 	xch	a,r6
      000D0B C4               [12] 3069 	swap	a
      000D0C CE               [12] 3070 	xch	a,r6
      000D0D 6E               [12] 3071 	xrl	a,r6
      000D0E CE               [12] 3072 	xch	a,r6
      000D0F 54 F0            [12] 3073 	anl	a,#0xf0
      000D11 CE               [12] 3074 	xch	a,r6
      000D12 6E               [12] 3075 	xrl	a,r6
      000D13 FF               [12] 3076 	mov	r7,a
      000D14 EB               [12] 3077 	mov	a,r3
      000D15 C4               [12] 3078 	swap	a
      000D16 54 0F            [12] 3079 	anl	a,#0x0f
      000D18 4E               [12] 3080 	orl	a,r6
      000D19 FE               [12] 3081 	mov	r6,a
      000D1A EB               [12] 3082 	mov	a,r3
      000D1B C4               [12] 3083 	swap	a
      000D1C 54 F0            [12] 3084 	anl	a,#0xf0
      000D1E CA               [12] 3085 	xch	a,r2
      000D1F C4               [12] 3086 	swap	a
      000D20 CA               [12] 3087 	xch	a,r2
      000D21 6A               [12] 3088 	xrl	a,r2
      000D22 CA               [12] 3089 	xch	a,r2
      000D23 54 F0            [12] 3090 	anl	a,#0xf0
      000D25 CA               [12] 3091 	xch	a,r2
      000D26 6A               [12] 3092 	xrl	a,r2
      000D27 FB               [12] 3093 	mov	r3,a
      000D28 A8*00            [24] 3094 	mov	r0,_bp
      000D2A 08               [12] 3095 	inc	r0
      000D2B E6               [12] 3096 	mov	a,@r0
      000D2C C3               [12] 3097 	clr	c
      000D2D 9A               [12] 3098 	subb	a,r2
      000D2E F6               [12] 3099 	mov	@r0,a
      000D2F 08               [12] 3100 	inc	r0
      000D30 E6               [12] 3101 	mov	a,@r0
      000D31 9B               [12] 3102 	subb	a,r3
      000D32 F6               [12] 3103 	mov	@r0,a
      000D33 08               [12] 3104 	inc	r0
      000D34 E6               [12] 3105 	mov	a,@r0
      000D35 9E               [12] 3106 	subb	a,r6
      000D36 F6               [12] 3107 	mov	@r0,a
      000D37 08               [12] 3108 	inc	r0
      000D38 E6               [12] 3109 	mov	a,@r0
      000D39 9F               [12] 3110 	subb	a,r7
      000D3A F6               [12] 3111 	mov	@r0,a
                                   3112 ;	C:\Users\Clovisf\Documents\ch552\bme680\BME680.c:202: (((int32_t)_t_fine * (int32_t)_calib.H3) / ((int32_t)100) >> 1);
      000D3B E5*19            [12] 3113 	mov	a,(__calib + 0x0019)
      000D3D FC               [12] 3114 	mov	r4,a
      000D3E 33               [12] 3115 	rlc	a
      000D3F 95 E0            [12] 3116 	subb	a,acc
      000D41 FD               [12] 3117 	mov	r5,a
      000D42 FE               [12] 3118 	mov	r6,a
      000D43 FF               [12] 3119 	mov	r7,a
      000D44 C0 04            [24] 3120 	push	ar4
      000D46 C0 05            [24] 3121 	push	ar5
      000D48 C0 06            [24] 3122 	push	ar6
      000D4A C0 07            [24] 3123 	push	ar7
      000D4C 85*21 82         [24] 3124 	mov	dpl, __t_fine
      000D4F 85*22 83         [24] 3125 	mov	dph, (__t_fine + 1)
      000D52 85*23 F0         [24] 3126 	mov	b, (__t_fine + 2)
      000D55 E5*24            [12] 3127 	mov	a, (__t_fine + 3)
      000D57 12r00r00         [24] 3128 	lcall	__mullong
      000D5A AC 82            [24] 3129 	mov	r4, dpl
      000D5C AD 83            [24] 3130 	mov	r5, dph
      000D5E AE F0            [24] 3131 	mov	r6, b
      000D60 FF               [12] 3132 	mov	r7, a
      000D61 E5 81            [12] 3133 	mov	a,sp
      000D63 24 FC            [12] 3134 	add	a,#0xfc
      000D65 F5 81            [12] 3135 	mov	sp,a
      000D67 74 64            [12] 3136 	mov	a,#0x64
      000D69 C0 E0            [24] 3137 	push	acc
      000D6B E4               [12] 3138 	clr	a
      000D6C C0 E0            [24] 3139 	push	acc
      000D6E C0 E0            [24] 3140 	push	acc
      000D70 C0 E0            [24] 3141 	push	acc
      000D72 8C 82            [24] 3142 	mov	dpl, r4
      000D74 8D 83            [24] 3143 	mov	dph, r5
      000D76 8E F0            [24] 3144 	mov	b, r6
      000D78 EF               [12] 3145 	mov	a, r7
      000D79 12r00r00         [24] 3146 	lcall	__divslong
      000D7C AC 82            [24] 3147 	mov	r4, dpl
      000D7E AD 83            [24] 3148 	mov	r5, dph
      000D80 AE F0            [24] 3149 	mov	r6, b
      000D82 FF               [12] 3150 	mov	r7, a
      000D83 E5 81            [12] 3151 	mov	a,sp
      000D85 24 FC            [12] 3152 	add	a,#0xfc
      000D87 F5 81            [12] 3153 	mov	sp,a
      000D89 EF               [12] 3154 	mov	a,r7
      000D8A A2 E7            [12] 3155 	mov	c,acc.7
      000D8C 13               [12] 3156 	rrc	a
      000D8D FF               [12] 3157 	mov	r7,a
      000D8E EE               [12] 3158 	mov	a,r6
      000D8F 13               [12] 3159 	rrc	a
      000D90 FE               [12] 3160 	mov	r6,a
      000D91 ED               [12] 3161 	mov	a,r5
      000D92 13               [12] 3162 	rrc	a
      000D93 FD               [12] 3163 	mov	r5,a
      000D94 EC               [12] 3164 	mov	a,r4
      000D95 13               [12] 3165 	rrc	a
      000D96 FC               [12] 3166 	mov	r4,a
      000D97 A8*00            [24] 3167 	mov	r0,_bp
      000D99 08               [12] 3168 	inc	r0
      000D9A E5*00            [12] 3169 	mov	a,_bp
      000D9C 24 09            [12] 3170 	add	a,#0x09
      000D9E F9               [12] 3171 	mov	r1,a
      000D9F E6               [12] 3172 	mov	a,@r0
      000DA0 C3               [12] 3173 	clr	c
      000DA1 9C               [12] 3174 	subb	a,r4
      000DA2 F7               [12] 3175 	mov	@r1,a
      000DA3 08               [12] 3176 	inc	r0
      000DA4 E6               [12] 3177 	mov	a,@r0
      000DA5 9D               [12] 3178 	subb	a,r5
      000DA6 09               [12] 3179 	inc	r1
      000DA7 F7               [12] 3180 	mov	@r1,a
      000DA8 08               [12] 3181 	inc	r0
      000DA9 E6               [12] 3182 	mov	a,@r0
      000DAA 9E               [12] 3183 	subb	a,r6
      000DAB 09               [12] 3184 	inc	r1
      000DAC F7               [12] 3185 	mov	@r1,a
      000DAD 08               [12] 3186 	inc	r0
      000DAE E6               [12] 3187 	mov	a,@r0
      000DAF 9F               [12] 3188 	subb	a,r7
      000DB0 09               [12] 3189 	inc	r1
      000DB1 F7               [12] 3190 	mov	@r1,a
                                   3191 ;	C:\Users\Clovisf\Documents\ch552\bme680\BME680.c:203: var2 = ((int32_t)_calib.H2 *
      000DB2 A8*00            [24] 3192 	mov	r0,_bp
      000DB4 08               [12] 3193 	inc	r0
      000DB5 A6*17            [24] 3194 	mov	@r0,(__calib + 0x0017)
      000DB7 08               [12] 3195 	inc	r0
      000DB8 A6*18            [24] 3196 	mov	@r0,((__calib + 0x0017) + 1)
      000DBA 08               [12] 3197 	inc	r0
      000DBB 76 00            [12] 3198 	mov	@r0,#0x00
      000DBD 08               [12] 3199 	inc	r0
      000DBE 76 00            [12] 3200 	mov	@r0,#0x00
                                   3201 ;	C:\Users\Clovisf\Documents\ch552\bme680\BME680.c:204: (((int32_t)_t_fine * (int32_t)_calib.H4) / ((int32_t)100) +
      000DC0 E5*1A            [12] 3202 	mov	a,(__calib + 0x001a)
      000DC2 FC               [12] 3203 	mov	r4,a
      000DC3 33               [12] 3204 	rlc	a
      000DC4 95 E0            [12] 3205 	subb	a,acc
      000DC6 FD               [12] 3206 	mov	r5,a
      000DC7 FE               [12] 3207 	mov	r6,a
      000DC8 FF               [12] 3208 	mov	r7,a
      000DC9 C0 04            [24] 3209 	push	ar4
      000DCB C0 05            [24] 3210 	push	ar5
      000DCD C0 06            [24] 3211 	push	ar6
      000DCF C0 07            [24] 3212 	push	ar7
      000DD1 85*21 82         [24] 3213 	mov	dpl, __t_fine
      000DD4 85*22 83         [24] 3214 	mov	dph, (__t_fine + 1)
      000DD7 85*23 F0         [24] 3215 	mov	b, (__t_fine + 2)
      000DDA E5*24            [12] 3216 	mov	a, (__t_fine + 3)
      000DDC 12r00r00         [24] 3217 	lcall	__mullong
      000DDF AC 82            [24] 3218 	mov	r4, dpl
      000DE1 AD 83            [24] 3219 	mov	r5, dph
      000DE3 AE F0            [24] 3220 	mov	r6, b
      000DE5 FF               [12] 3221 	mov	r7, a
      000DE6 E5 81            [12] 3222 	mov	a,sp
      000DE8 24 FC            [12] 3223 	add	a,#0xfc
      000DEA F5 81            [12] 3224 	mov	sp,a
      000DEC 74 64            [12] 3225 	mov	a,#0x64
      000DEE C0 E0            [24] 3226 	push	acc
      000DF0 E4               [12] 3227 	clr	a
      000DF1 C0 E0            [24] 3228 	push	acc
      000DF3 C0 E0            [24] 3229 	push	acc
      000DF5 C0 E0            [24] 3230 	push	acc
                                   3231 ;	C:\Users\Clovisf\Documents\ch552\bme680\BME680.c:205: (((int32_t)_t_fine * ((int32_t)_t_fine * (int32_t)_calib.H5) /
      000DF7 8C 82            [24] 3232 	mov	dpl, r4
      000DF9 8D 83            [24] 3233 	mov	dph, r5
      000DFB 8E F0            [24] 3234 	mov	b, r6
      000DFD EF               [12] 3235 	mov	a, r7
      000DFE 12r00r00         [24] 3236 	lcall	__divslong
      000E01 C8               [12] 3237 	xch	a,r0
      000E02 E5*00            [12] 3238 	mov	a,_bp
      000E04 24 05            [12] 3239 	add	a,#0x05
      000E06 C8               [12] 3240 	xch	a,r0
      000E07 A6 82            [24] 3241 	mov	@r0, dpl
      000E09 08               [12] 3242 	inc	r0
      000E0A A6 83            [24] 3243 	mov	@r0, dph
      000E0C 08               [12] 3244 	inc	r0
      000E0D A6 F0            [24] 3245 	mov	@r0, b
      000E0F 08               [12] 3246 	inc	r0
      000E10 F6               [12] 3247 	mov	@r0,a
      000E11 E5 81            [12] 3248 	mov	a,sp
      000E13 24 FC            [12] 3249 	add	a,#0xfc
      000E15 F5 81            [12] 3250 	mov	sp,a
      000E17 E5*1B            [12] 3251 	mov	a,(__calib + 0x001b)
      000E19 FA               [12] 3252 	mov	r2,a
      000E1A 33               [12] 3253 	rlc	a
      000E1B 95 E0            [12] 3254 	subb	a,acc
      000E1D FB               [12] 3255 	mov	r3,a
      000E1E FE               [12] 3256 	mov	r6,a
      000E1F FF               [12] 3257 	mov	r7,a
      000E20 C0 02            [24] 3258 	push	ar2
      000E22 C0 03            [24] 3259 	push	ar3
      000E24 C0 06            [24] 3260 	push	ar6
      000E26 C0 07            [24] 3261 	push	ar7
      000E28 85*21 82         [24] 3262 	mov	dpl, __t_fine
      000E2B 85*22 83         [24] 3263 	mov	dph, (__t_fine + 1)
      000E2E 85*23 F0         [24] 3264 	mov	b, (__t_fine + 2)
      000E31 E5*24            [12] 3265 	mov	a, (__t_fine + 3)
      000E33 12r00r00         [24] 3266 	lcall	__mullong
      000E36 AC 82            [24] 3267 	mov	r4, dpl
      000E38 AD 83            [24] 3268 	mov	r5, dph
      000E3A AE F0            [24] 3269 	mov	r6, b
      000E3C FF               [12] 3270 	mov	r7, a
      000E3D E5 81            [12] 3271 	mov	a,sp
      000E3F 24 FC            [12] 3272 	add	a,#0xfc
      000E41 F5 81            [12] 3273 	mov	sp,a
      000E43 C0 04            [24] 3274 	push	ar4
      000E45 C0 05            [24] 3275 	push	ar5
      000E47 C0 06            [24] 3276 	push	ar6
      000E49 C0 07            [24] 3277 	push	ar7
      000E4B 85*21 82         [24] 3278 	mov	dpl, __t_fine
      000E4E 85*22 83         [24] 3279 	mov	dph, (__t_fine + 1)
      000E51 85*23 F0         [24] 3280 	mov	b, (__t_fine + 2)
      000E54 E5*24            [12] 3281 	mov	a, (__t_fine + 3)
      000E56 12r00r00         [24] 3282 	lcall	__mullong
      000E59 AC 82            [24] 3283 	mov	r4, dpl
      000E5B AD 83            [24] 3284 	mov	r5, dph
      000E5D AE F0            [24] 3285 	mov	r6, b
      000E5F FF               [12] 3286 	mov	r7, a
      000E60 E5 81            [12] 3287 	mov	a,sp
      000E62 24 FC            [12] 3288 	add	a,#0xfc
      000E64 F5 81            [12] 3289 	mov	sp,a
      000E66 74 64            [12] 3290 	mov	a,#0x64
      000E68 C0 E0            [24] 3291 	push	acc
      000E6A E4               [12] 3292 	clr	a
      000E6B C0 E0            [24] 3293 	push	acc
      000E6D C0 E0            [24] 3294 	push	acc
      000E6F C0 E0            [24] 3295 	push	acc
      000E71 8C 82            [24] 3296 	mov	dpl, r4
      000E73 8D 83            [24] 3297 	mov	dph, r5
      000E75 8E F0            [24] 3298 	mov	b, r6
      000E77 EF               [12] 3299 	mov	a, r7
      000E78 12r00r00         [24] 3300 	lcall	__divslong
      000E7B AC 82            [24] 3301 	mov	r4, dpl
      000E7D AD 83            [24] 3302 	mov	r5, dph
      000E7F AE F0            [24] 3303 	mov	r6, b
      000E81 FF               [12] 3304 	mov	r7, a
      000E82 E5 81            [12] 3305 	mov	a,sp
      000E84 24 FC            [12] 3306 	add	a,#0xfc
      000E86 F5 81            [12] 3307 	mov	sp,a
      000E88 ED               [12] 3308 	mov	a,r5
      000E89 A2 E7            [12] 3309 	mov	c,acc.7
      000E8B CC               [12] 3310 	xch	a,r4
      000E8C 33               [12] 3311 	rlc	a
      000E8D CC               [12] 3312 	xch	a,r4
      000E8E 33               [12] 3313 	rlc	a
      000E8F A2 E7            [12] 3314 	mov	c,acc.7
      000E91 CC               [12] 3315 	xch	a,r4
      000E92 33               [12] 3316 	rlc	a
      000E93 CC               [12] 3317 	xch	a,r4
      000E94 33               [12] 3318 	rlc	a
      000E95 CC               [12] 3319 	xch	a,r4
      000E96 54 03            [12] 3320 	anl	a,#0x03
      000E98 FD               [12] 3321 	mov	r5,a
      000E99 EE               [12] 3322 	mov	a,r6
      000E9A 2E               [12] 3323 	add	a,r6
      000E9B 25 E0            [12] 3324 	add	a,acc
      000E9D 4D               [12] 3325 	orl	a,r5
      000E9E FD               [12] 3326 	mov	r5,a
      000E9F EF               [12] 3327 	mov	a,r7
      000EA0 A2 E7            [12] 3328 	mov	c,acc.7
      000EA2 CE               [12] 3329 	xch	a,r6
      000EA3 33               [12] 3330 	rlc	a
      000EA4 CE               [12] 3331 	xch	a,r6
      000EA5 33               [12] 3332 	rlc	a
      000EA6 A2 E7            [12] 3333 	mov	c,acc.7
      000EA8 CE               [12] 3334 	xch	a,r6
      000EA9 33               [12] 3335 	rlc	a
      000EAA CE               [12] 3336 	xch	a,r6
      000EAB 33               [12] 3337 	rlc	a
      000EAC CE               [12] 3338 	xch	a,r6
      000EAD 54 03            [12] 3339 	anl	a,#0x03
      000EAF 30 E1 02         [24] 3340 	jnb	acc.1,00112$
      000EB2 44 FC            [12] 3341 	orl	a,#0xfffffffc
      000EB4                       3342 00112$:
      000EB4 FF               [12] 3343 	mov	r7,a
      000EB5 74 64            [12] 3344 	mov	a,#0x64
      000EB7 C0 E0            [24] 3345 	push	acc
      000EB9 E4               [12] 3346 	clr	a
      000EBA C0 E0            [24] 3347 	push	acc
      000EBC C0 E0            [24] 3348 	push	acc
      000EBE C0 E0            [24] 3349 	push	acc
      000EC0 8C 82            [24] 3350 	mov	dpl, r4
      000EC2 8D 83            [24] 3351 	mov	dph, r5
      000EC4 8E F0            [24] 3352 	mov	b, r6
      000EC6 EF               [12] 3353 	mov	a, r7
      000EC7 12r00r00         [24] 3354 	lcall	__divslong
      000ECA AC 82            [24] 3355 	mov	r4, dpl
      000ECC AD 83            [24] 3356 	mov	r5, dph
      000ECE AE F0            [24] 3357 	mov	r6, b
      000ED0 FF               [12] 3358 	mov	r7, a
      000ED1 E5 81            [12] 3359 	mov	a,sp
      000ED3 24 FC            [12] 3360 	add	a,#0xfc
      000ED5 F5 81            [12] 3361 	mov	sp,a
      000ED7 E5*00            [12] 3362 	mov	a,_bp
      000ED9 24 05            [12] 3363 	add	a,#0x05
      000EDB F8               [12] 3364 	mov	r0,a
      000EDC EC               [12] 3365 	mov	a,r4
      000EDD 26               [12] 3366 	add	a, @r0
      000EDE FC               [12] 3367 	mov	r4,a
      000EDF ED               [12] 3368 	mov	a,r5
      000EE0 08               [12] 3369 	inc	r0
      000EE1 36               [12] 3370 	addc	a, @r0
      000EE2 FD               [12] 3371 	mov	r5,a
      000EE3 EE               [12] 3372 	mov	a,r6
      000EE4 08               [12] 3373 	inc	r0
      000EE5 36               [12] 3374 	addc	a, @r0
      000EE6 FE               [12] 3375 	mov	r6,a
      000EE7 EF               [12] 3376 	mov	a,r7
      000EE8 08               [12] 3377 	inc	r0
      000EE9 36               [12] 3378 	addc	a, @r0
      000EEA FF               [12] 3379 	mov	r7,a
      000EEB 74 40            [12] 3380 	mov	a,#0x40
      000EED 2D               [12] 3381 	add	a, r5
      000EEE FD               [12] 3382 	mov	r5,a
      000EEF E4               [12] 3383 	clr	a
      000EF0 3E               [12] 3384 	addc	a, r6
      000EF1 FE               [12] 3385 	mov	r6,a
      000EF2 E4               [12] 3386 	clr	a
      000EF3 3F               [12] 3387 	addc	a, r7
      000EF4 FF               [12] 3388 	mov	r7,a
      000EF5 C0 04            [24] 3389 	push	ar4
      000EF7 C0 05            [24] 3390 	push	ar5
      000EF9 C0 06            [24] 3391 	push	ar6
      000EFB C0 07            [24] 3392 	push	ar7
      000EFD A8*00            [24] 3393 	mov	r0,_bp
      000EFF 08               [12] 3394 	inc	r0
      000F00 86 82            [24] 3395 	mov	dpl, @r0
      000F02 08               [12] 3396 	inc	r0
      000F03 86 83            [24] 3397 	mov	dph, @r0
      000F05 08               [12] 3398 	inc	r0
      000F06 86 F0            [24] 3399 	mov	b, @r0
      000F08 08               [12] 3400 	inc	r0
      000F09 E6               [12] 3401 	mov	a, @r0
      000F0A 12r00r00         [24] 3402 	lcall	__mullong
      000F0D AD 83            [24] 3403 	mov	r5, dph
      000F0F AE F0            [24] 3404 	mov	r6, b
      000F11 FF               [12] 3405 	mov	r7, a
      000F12 E5 81            [12] 3406 	mov	a,sp
      000F14 24 FC            [12] 3407 	add	a,#0xfc
      000F16 F5 81            [12] 3408 	mov	sp,a
      000F18 8D 04            [24] 3409 	mov	ar4,r5
      000F1A EE               [12] 3410 	mov	a,r6
      000F1B C3               [12] 3411 	clr	c
      000F1C 13               [12] 3412 	rrc	a
      000F1D CC               [12] 3413 	xch	a,r4
      000F1E 13               [12] 3414 	rrc	a
      000F1F CC               [12] 3415 	xch	a,r4
      000F20 C3               [12] 3416 	clr	c
      000F21 13               [12] 3417 	rrc	a
      000F22 CC               [12] 3418 	xch	a,r4
      000F23 13               [12] 3419 	rrc	a
      000F24 CC               [12] 3420 	xch	a,r4
      000F25 FD               [12] 3421 	mov	r5,a
      000F26 EF               [12] 3422 	mov	a,r7
      000F27 03               [12] 3423 	rr	a
      000F28 03               [12] 3424 	rr	a
      000F29 54 C0            [12] 3425 	anl	a,#0xc0
      000F2B 4D               [12] 3426 	orl	a,r5
      000F2C FD               [12] 3427 	mov	r5,a
      000F2D EF               [12] 3428 	mov	a,r7
      000F2E A2 E7            [12] 3429 	mov	c,acc.7
      000F30 13               [12] 3430 	rrc	a
      000F31 A2 E7            [12] 3431 	mov	c,acc.7
      000F33 13               [12] 3432 	rrc	a
      000F34 FE               [12] 3433 	mov	r6,a
      000F35 33               [12] 3434 	rlc	a
      000F36 95 E0            [12] 3435 	subb	a,acc
      000F38 FF               [12] 3436 	mov	r7,a
                                   3437 ;	C:\Users\Clovisf\Documents\ch552\bme680\BME680.c:207: var3 = var1 * var2;
      000F39 C0 04            [24] 3438 	push	ar4
      000F3B C0 05            [24] 3439 	push	ar5
      000F3D C0 06            [24] 3440 	push	ar6
      000F3F C0 07            [24] 3441 	push	ar7
                                   3442 ;	C:\Users\Clovisf\Documents\ch552\bme680\BME680.c:208: var4 = (int32_t)_calib.H6;
      000F41 E5*00            [12] 3443 	mov	a,_bp
      000F43 24 09            [12] 3444 	add	a,#0x09
      000F45 F8               [12] 3445 	mov	r0,a
      000F46 86 82            [24] 3446 	mov	dpl, @r0
      000F48 08               [12] 3447 	inc	r0
      000F49 86 83            [24] 3448 	mov	dph, @r0
      000F4B 08               [12] 3449 	inc	r0
      000F4C 86 F0            [24] 3450 	mov	b, @r0
      000F4E 08               [12] 3451 	inc	r0
      000F4F E6               [12] 3452 	mov	a, @r0
      000F50 12r00r00         [24] 3453 	lcall	__mullong
      000F53 C8               [12] 3454 	xch	a,r0
      000F54 E5*00            [12] 3455 	mov	a,_bp
      000F56 24 0D            [12] 3456 	add	a,#0x0d
      000F58 C8               [12] 3457 	xch	a,r0
      000F59 A6 82            [24] 3458 	mov	@r0, dpl
      000F5B 08               [12] 3459 	inc	r0
      000F5C A6 83            [24] 3460 	mov	@r0, dph
      000F5E 08               [12] 3461 	inc	r0
      000F5F A6 F0            [24] 3462 	mov	@r0, b
      000F61 08               [12] 3463 	inc	r0
      000F62 F6               [12] 3464 	mov	@r0,a
      000F63 E5 81            [12] 3465 	mov	a,sp
      000F65 24 FC            [12] 3466 	add	a,#0xfc
      000F67 F5 81            [12] 3467 	mov	sp,a
      000F69 AA*1C            [24] 3468 	mov	r2,(__calib + 0x001c)
                                   3469 ;	C:\Users\Clovisf\Documents\ch552\bme680\BME680.c:209: var4 = ((var4 << 7) + ((int32_t)_t_fine * (int32_t)_calib.H7) /
      000F6B E4               [12] 3470 	clr	a
      000F6C FB               [12] 3471 	mov	r3,a
      000F6D FE               [12] 3472 	mov	r6,a
      000F6E FF               [12] 3473 	mov	r7,a
      000F6F E5*00            [12] 3474 	mov	a,_bp
      000F71 24 05            [12] 3475 	add	a,#0x05
      000F73 F8               [12] 3476 	mov	r0,a
      000F74 08               [12] 3477 	inc	r0
      000F75 08               [12] 3478 	inc	r0
      000F76 A6 06            [24] 3479 	mov	@r0,ar6
      000F78 EF               [12] 3480 	mov	a,r7
      000F79 54 01            [12] 3481 	anl	a,#0x01
      000F7B A2 E0            [12] 3482 	mov	c,acc.0
      000F7D C6               [12] 3483 	xch	a,@r0
      000F7E 13               [12] 3484 	rrc	a
      000F7F C6               [12] 3485 	xch	a,@r0
      000F80 13               [12] 3486 	rrc	a
      000F81 C6               [12] 3487 	xch	a,@r0
      000F82 08               [12] 3488 	inc	r0
      000F83 F6               [12] 3489 	mov	@r0,a
      000F84 EB               [12] 3490 	mov	a,r3
      000F85 C3               [12] 3491 	clr	c
      000F86 13               [12] 3492 	rrc	a
      000F87 18               [12] 3493 	dec	r0
      000F88 46               [12] 3494 	orl	a,@r0
      000F89 F6               [12] 3495 	mov	@r0,a
      000F8A 18               [12] 3496 	dec	r0
      000F8B 18               [12] 3497 	dec	r0
      000F8C A6 02            [24] 3498 	mov	@r0,ar2
      000F8E EB               [12] 3499 	mov	a,r3
      000F8F 54 01            [12] 3500 	anl	a,#0x01
      000F91 A2 E0            [12] 3501 	mov	c,acc.0
      000F93 C6               [12] 3502 	xch	a,@r0
      000F94 13               [12] 3503 	rrc	a
      000F95 C6               [12] 3504 	xch	a,@r0
      000F96 13               [12] 3505 	rrc	a
      000F97 C6               [12] 3506 	xch	a,@r0
      000F98 08               [12] 3507 	inc	r0
      000F99 F6               [12] 3508 	mov	@r0,a
      000F9A E5*1D            [12] 3509 	mov	a,(__calib + 0x001d)
      000F9C FC               [12] 3510 	mov	r4,a
      000F9D 33               [12] 3511 	rlc	a
      000F9E 95 E0            [12] 3512 	subb	a,acc
      000FA0 FD               [12] 3513 	mov	r5,a
      000FA1 FE               [12] 3514 	mov	r6,a
      000FA2 FF               [12] 3515 	mov	r7,a
      000FA3 C0 04            [24] 3516 	push	ar4
      000FA5 C0 05            [24] 3517 	push	ar5
      000FA7 C0 06            [24] 3518 	push	ar6
      000FA9 C0 07            [24] 3519 	push	ar7
      000FAB 85*21 82         [24] 3520 	mov	dpl, __t_fine
      000FAE 85*22 83         [24] 3521 	mov	dph, (__t_fine + 1)
      000FB1 85*23 F0         [24] 3522 	mov	b, (__t_fine + 2)
      000FB4 E5*24            [12] 3523 	mov	a, (__t_fine + 3)
      000FB6 12r00r00         [24] 3524 	lcall	__mullong
      000FB9 AC 82            [24] 3525 	mov	r4, dpl
      000FBB AD 83            [24] 3526 	mov	r5, dph
      000FBD AE F0            [24] 3527 	mov	r6, b
      000FBF FF               [12] 3528 	mov	r7, a
      000FC0 E5 81            [12] 3529 	mov	a,sp
      000FC2 24 FC            [12] 3530 	add	a,#0xfc
      000FC4 F5 81            [12] 3531 	mov	sp,a
      000FC6 74 64            [12] 3532 	mov	a,#0x64
      000FC8 C0 E0            [24] 3533 	push	acc
      000FCA E4               [12] 3534 	clr	a
      000FCB C0 E0            [24] 3535 	push	acc
      000FCD C0 E0            [24] 3536 	push	acc
      000FCF C0 E0            [24] 3537 	push	acc
      000FD1 8C 82            [24] 3538 	mov	dpl, r4
      000FD3 8D 83            [24] 3539 	mov	dph, r5
      000FD5 8E F0            [24] 3540 	mov	b, r6
      000FD7 EF               [12] 3541 	mov	a, r7
      000FD8 12r00r00         [24] 3542 	lcall	__divslong
      000FDB AC 82            [24] 3543 	mov	r4, dpl
      000FDD AD 83            [24] 3544 	mov	r5, dph
      000FDF AE F0            [24] 3545 	mov	r6, b
      000FE1 FF               [12] 3546 	mov	r7, a
      000FE2 E5 81            [12] 3547 	mov	a,sp
      000FE4 24 FC            [12] 3548 	add	a,#0xfc
      000FE6 F5 81            [12] 3549 	mov	sp,a
      000FE8 E5*00            [12] 3550 	mov	a,_bp
      000FEA 24 05            [12] 3551 	add	a,#0x05
      000FEC F8               [12] 3552 	mov	r0,a
      000FED EC               [12] 3553 	mov	a,r4
      000FEE 26               [12] 3554 	add	a, @r0
      000FEF FC               [12] 3555 	mov	r4,a
      000FF0 ED               [12] 3556 	mov	a,r5
      000FF1 08               [12] 3557 	inc	r0
      000FF2 36               [12] 3558 	addc	a, @r0
      000FF3 FD               [12] 3559 	mov	r5,a
      000FF4 EE               [12] 3560 	mov	a,r6
      000FF5 08               [12] 3561 	inc	r0
      000FF6 36               [12] 3562 	addc	a, @r0
      000FF7 FE               [12] 3563 	mov	r6,a
      000FF8 EF               [12] 3564 	mov	a,r7
      000FF9 08               [12] 3565 	inc	r0
      000FFA 36               [12] 3566 	addc	a, @r0
      000FFB FF               [12] 3567 	mov	r7,a
      000FFC E5*00            [12] 3568 	mov	a,_bp
      000FFE 24 11            [12] 3569 	add	a,#0x11
      001000 F8               [12] 3570 	mov	r0,a
      001001 A6 04            [24] 3571 	mov	@r0,ar4
      001003 ED               [12] 3572 	mov	a,r5
      001004 C4               [12] 3573 	swap	a
      001005 C6               [12] 3574 	xch	a,@r0
      001006 C4               [12] 3575 	swap	a
      001007 54 0F            [12] 3576 	anl	a,#0x0f
      001009 66               [12] 3577 	xrl	a,@r0
      00100A C6               [12] 3578 	xch	a,@r0
      00100B 54 0F            [12] 3579 	anl	a,#0x0f
      00100D C6               [12] 3580 	xch	a,@r0
      00100E 66               [12] 3581 	xrl	a,@r0
      00100F C6               [12] 3582 	xch	a,@r0
      001010 08               [12] 3583 	inc	r0
      001011 F6               [12] 3584 	mov	@r0,a
      001012 EE               [12] 3585 	mov	a,r6
      001013 C4               [12] 3586 	swap	a
      001014 54 F0            [12] 3587 	anl	a,#0xf0
      001016 46               [12] 3588 	orl	a,@r0
      001017 F6               [12] 3589 	mov	@r0,a
      001018 08               [12] 3590 	inc	r0
      001019 A6 06            [24] 3591 	mov	@r0,ar6
      00101B EF               [12] 3592 	mov	a,r7
      00101C C4               [12] 3593 	swap	a
      00101D C6               [12] 3594 	xch	a,@r0
      00101E C4               [12] 3595 	swap	a
      00101F 54 0F            [12] 3596 	anl	a,#0x0f
      001021 66               [12] 3597 	xrl	a,@r0
      001022 C6               [12] 3598 	xch	a,@r0
      001023 54 0F            [12] 3599 	anl	a,#0x0f
      001025 C6               [12] 3600 	xch	a,@r0
      001026 66               [12] 3601 	xrl	a,@r0
      001027 C6               [12] 3602 	xch	a,@r0
      001028 30 E3 02         [24] 3603 	jnb	acc.3,00113$
      00102B 44 F0            [12] 3604 	orl	a,#0xfffffff0
      00102D                       3605 00113$:
      00102D 08               [12] 3606 	inc	r0
      00102E F6               [12] 3607 	mov	@r0,a
                                   3608 ;	C:\Users\Clovisf\Documents\ch552\bme680\BME680.c:211: var5 = ((var3 >> 14) * (var3 >> 14)) >> 10;
      00102F E5*00            [12] 3609 	mov	a,_bp
      001031 24 0D            [12] 3610 	add	a,#0x0d
      001033 F8               [12] 3611 	mov	r0,a
      001034 08               [12] 3612 	inc	r0
      001035 86 02            [24] 3613 	mov	ar2,@r0
      001037 08               [12] 3614 	inc	r0
      001038 E6               [12] 3615 	mov	a,@r0
      001039 A2 E7            [12] 3616 	mov	c,acc.7
      00103B CA               [12] 3617 	xch	a,r2
      00103C 33               [12] 3618 	rlc	a
      00103D CA               [12] 3619 	xch	a,r2
      00103E 33               [12] 3620 	rlc	a
      00103F A2 E7            [12] 3621 	mov	c,acc.7
      001041 CA               [12] 3622 	xch	a,r2
      001042 33               [12] 3623 	rlc	a
      001043 CA               [12] 3624 	xch	a,r2
      001044 33               [12] 3625 	rlc	a
      001045 CA               [12] 3626 	xch	a,r2
      001046 54 03            [12] 3627 	anl	a,#0x03
      001048 FB               [12] 3628 	mov	r3,a
      001049 08               [12] 3629 	inc	r0
      00104A E6               [12] 3630 	mov	a,@r0
      00104B 26               [12] 3631 	add	a,@r0
      00104C 25 E0            [12] 3632 	add	a,acc
      00104E 4B               [12] 3633 	orl	a,r3
      00104F FB               [12] 3634 	mov	r3,a
      001050 E6               [12] 3635 	mov	a,@r0
      001051 23               [12] 3636 	rl	a
      001052 23               [12] 3637 	rl	a
      001053 54 03            [12] 3638 	anl	a,#0x03
      001055 30 E1 02         [24] 3639 	jnb	acc.1,00114$
      001058 44 FC            [12] 3640 	orl	a,#0xfc
      00105A                       3641 00114$:
      00105A FE               [12] 3642 	mov	r6,a
      00105B 33               [12] 3643 	rlc	a
      00105C 95 E0            [12] 3644 	subb	a,acc
      00105E FF               [12] 3645 	mov	r7,a
      00105F C0 02            [24] 3646 	push	ar2
      001061 C0 03            [24] 3647 	push	ar3
      001063 C0 06            [24] 3648 	push	ar6
      001065 C0 07            [24] 3649 	push	ar7
      001067 8A 82            [24] 3650 	mov	dpl, r2
      001069 8B 83            [24] 3651 	mov	dph, r3
      00106B 8E F0            [24] 3652 	mov	b, r6
      00106D EF               [12] 3653 	mov	a, r7
      00106E 12r00r00         [24] 3654 	lcall	__mullong
      001071 AD 83            [24] 3655 	mov	r5, dph
      001073 AE F0            [24] 3656 	mov	r6, b
      001075 FF               [12] 3657 	mov	r7, a
      001076 E5 81            [12] 3658 	mov	a,sp
      001078 24 FC            [12] 3659 	add	a,#0xfc
      00107A F5 81            [12] 3660 	mov	sp,a
      00107C 8D 04            [24] 3661 	mov	ar4,r5
      00107E EE               [12] 3662 	mov	a,r6
      00107F C3               [12] 3663 	clr	c
      001080 13               [12] 3664 	rrc	a
      001081 CC               [12] 3665 	xch	a,r4
      001082 13               [12] 3666 	rrc	a
      001083 CC               [12] 3667 	xch	a,r4
      001084 C3               [12] 3668 	clr	c
      001085 13               [12] 3669 	rrc	a
      001086 CC               [12] 3670 	xch	a,r4
      001087 13               [12] 3671 	rrc	a
      001088 CC               [12] 3672 	xch	a,r4
      001089 FD               [12] 3673 	mov	r5,a
      00108A EF               [12] 3674 	mov	a,r7
      00108B 03               [12] 3675 	rr	a
      00108C 03               [12] 3676 	rr	a
      00108D 54 C0            [12] 3677 	anl	a,#0xc0
      00108F 4D               [12] 3678 	orl	a,r5
      001090 FD               [12] 3679 	mov	r5,a
      001091 EF               [12] 3680 	mov	a,r7
      001092 A2 E7            [12] 3681 	mov	c,acc.7
      001094 13               [12] 3682 	rrc	a
      001095 A2 E7            [12] 3683 	mov	c,acc.7
      001097 13               [12] 3684 	rrc	a
      001098 FE               [12] 3685 	mov	r6,a
      001099 33               [12] 3686 	rlc	a
      00109A 95 E0            [12] 3687 	subb	a,acc
      00109C FF               [12] 3688 	mov	r7,a
                                   3689 ;	C:\Users\Clovisf\Documents\ch552\bme680\BME680.c:212: var6 = (var4 * var5) >> 1;
      00109D C0 04            [24] 3690 	push	ar4
      00109F C0 05            [24] 3691 	push	ar5
      0010A1 C0 06            [24] 3692 	push	ar6
      0010A3 C0 07            [24] 3693 	push	ar7
      0010A5 E5*00            [12] 3694 	mov	a,_bp
      0010A7 24 11            [12] 3695 	add	a,#0x11
      0010A9 F8               [12] 3696 	mov	r0,a
      0010AA 86 82            [24] 3697 	mov	dpl, @r0
      0010AC 08               [12] 3698 	inc	r0
      0010AD 86 83            [24] 3699 	mov	dph, @r0
      0010AF 08               [12] 3700 	inc	r0
      0010B0 86 F0            [24] 3701 	mov	b, @r0
      0010B2 08               [12] 3702 	inc	r0
      0010B3 E6               [12] 3703 	mov	a, @r0
      0010B4 12r00r00         [24] 3704 	lcall	__mullong
      0010B7 AC 82            [24] 3705 	mov	r4, dpl
      0010B9 AD 83            [24] 3706 	mov	r5, dph
      0010BB AE F0            [24] 3707 	mov	r6, b
      0010BD FF               [12] 3708 	mov	r7, a
      0010BE E5 81            [12] 3709 	mov	a,sp
      0010C0 24 FC            [12] 3710 	add	a,#0xfc
      0010C2 F5 81            [12] 3711 	mov	sp,a
      0010C4 EF               [12] 3712 	mov	a,r7
      0010C5 A2 E7            [12] 3713 	mov	c,acc.7
      0010C7 13               [12] 3714 	rrc	a
      0010C8 FF               [12] 3715 	mov	r7,a
      0010C9 EE               [12] 3716 	mov	a,r6
      0010CA 13               [12] 3717 	rrc	a
      0010CB FE               [12] 3718 	mov	r6,a
      0010CC ED               [12] 3719 	mov	a,r5
      0010CD 13               [12] 3720 	rrc	a
      0010CE FD               [12] 3721 	mov	r5,a
      0010CF EC               [12] 3722 	mov	a,r4
      0010D0 13               [12] 3723 	rrc	a
      0010D1 FC               [12] 3724 	mov	r4,a
                                   3725 ;	C:\Users\Clovisf\Documents\ch552\bme680\BME680.c:213: H    = (uint32_t)((var3 + var6) >> 12);
      0010D2 E5*00            [12] 3726 	mov	a,_bp
      0010D4 24 0D            [12] 3727 	add	a,#0x0d
      0010D6 F8               [12] 3728 	mov	r0,a
      0010D7 EC               [12] 3729 	mov	a,r4
      0010D8 26               [12] 3730 	add	a, @r0
      0010D9 ED               [12] 3731 	mov	a,r5
      0010DA 08               [12] 3732 	inc	r0
      0010DB 36               [12] 3733 	addc	a, @r0
      0010DC FD               [12] 3734 	mov	r5,a
      0010DD EE               [12] 3735 	mov	a,r6
      0010DE 08               [12] 3736 	inc	r0
      0010DF 36               [12] 3737 	addc	a, @r0
      0010E0 FE               [12] 3738 	mov	r6,a
      0010E1 EF               [12] 3739 	mov	a,r7
      0010E2 08               [12] 3740 	inc	r0
      0010E3 36               [12] 3741 	addc	a, @r0
      0010E4 FF               [12] 3742 	mov	r7,a
      0010E5 8D 04            [24] 3743 	mov	ar4,r5
      0010E7 EE               [12] 3744 	mov	a,r6
      0010E8 C4               [12] 3745 	swap	a
      0010E9 CC               [12] 3746 	xch	a,r4
      0010EA C4               [12] 3747 	swap	a
      0010EB 54 0F            [12] 3748 	anl	a,#0x0f
      0010ED 6C               [12] 3749 	xrl	a,r4
      0010EE CC               [12] 3750 	xch	a,r4
      0010EF 54 0F            [12] 3751 	anl	a,#0x0f
      0010F1 CC               [12] 3752 	xch	a,r4
      0010F2 6C               [12] 3753 	xrl	a,r4
      0010F3 CC               [12] 3754 	xch	a,r4
      0010F4 FD               [12] 3755 	mov	r5,a
      0010F5 EF               [12] 3756 	mov	a,r7
      0010F6 C4               [12] 3757 	swap	a
      0010F7 54 F0            [12] 3758 	anl	a,#0xf0
      0010F9 4D               [12] 3759 	orl	a,r5
      0010FA FD               [12] 3760 	mov	r5,a
      0010FB EF               [12] 3761 	mov	a,r7
      0010FC C4               [12] 3762 	swap	a
      0010FD 54 0F            [12] 3763 	anl	a,#0x0f
      0010FF 30 E3 02         [24] 3764 	jnb	acc.3,00115$
      001102 44 F0            [12] 3765 	orl	a,#0xf0
      001104                       3766 00115$:
      001104 FE               [12] 3767 	mov	r6,a
      001105 33               [12] 3768 	rlc	a
      001106 95 E0            [12] 3769 	subb	a,acc
      001108 FF               [12] 3770 	mov	r7,a
                                   3771 ;	C:\Users\Clovisf\Documents\ch552\bme680\BME680.c:214: H    = (uint32_t)(((uint32_t)H * (uint32_t)1000) >> 12);
      001109 C0 04            [24] 3772 	push	ar4
      00110B C0 05            [24] 3773 	push	ar5
      00110D C0 06            [24] 3774 	push	ar6
      00110F C0 07            [24] 3775 	push	ar7
      001111 90 03 E8         [24] 3776 	mov	dptr,#0x03e8
      001114 E4               [12] 3777 	clr	a
      001115 F5 F0            [12] 3778 	mov	b,a
      001117 12r00r00         [24] 3779 	lcall	__mullong
      00111A AD 83            [24] 3780 	mov	r5, dph
      00111C AE F0            [24] 3781 	mov	r6, b
      00111E FF               [12] 3782 	mov	r7, a
      00111F E5 81            [12] 3783 	mov	a,sp
      001121 24 FC            [12] 3784 	add	a,#0xfc
      001123 F5 81            [12] 3785 	mov	sp,a
      001125 8D 04            [24] 3786 	mov	ar4,r5
      001127 EE               [12] 3787 	mov	a,r6
      001128 C4               [12] 3788 	swap	a
      001129 CC               [12] 3789 	xch	a,r4
      00112A C4               [12] 3790 	swap	a
      00112B 54 0F            [12] 3791 	anl	a,#0x0f
      00112D 6C               [12] 3792 	xrl	a,r4
      00112E CC               [12] 3793 	xch	a,r4
      00112F 54 0F            [12] 3794 	anl	a,#0x0f
      001131 CC               [12] 3795 	xch	a,r4
      001132 6C               [12] 3796 	xrl	a,r4
      001133 CC               [12] 3797 	xch	a,r4
      001134 FD               [12] 3798 	mov	r5,a
      001135 EF               [12] 3799 	mov	a,r7
      001136 C4               [12] 3800 	swap	a
      001137 54 F0            [12] 3801 	anl	a,#0xf0
      001139 4D               [12] 3802 	orl	a,r5
      00113A FD               [12] 3803 	mov	r5,a
      00113B EF               [12] 3804 	mov	a,r7
      00113C C4               [12] 3805 	swap	a
      00113D 54 0F            [12] 3806 	anl	a,#0x0f
      00113F FE               [12] 3807 	mov	r6,a
      001140 7F 00            [12] 3808 	mov	r7,#0x00
                                   3809 ;	C:\Users\Clovisf\Documents\ch552\bme680\BME680.c:216: if (H > 100000) H = 100000;
      001142 C3               [12] 3810 	clr	c
      001143 74 A0            [12] 3811 	mov	a,#0xa0
      001145 9C               [12] 3812 	subb	a,r4
      001146 74 86            [12] 3813 	mov	a,#0x86
      001148 9D               [12] 3814 	subb	a,r5
      001149 74 01            [12] 3815 	mov	a,#0x01
      00114B 9E               [12] 3816 	subb	a,r6
      00114C E4               [12] 3817 	clr	a
      00114D 9F               [12] 3818 	subb	a,r7
      00114E 50 08            [24] 3819 	jnc	00102$
      001150 7C A0            [12] 3820 	mov	r4,#0xa0
      001152 7D 86            [12] 3821 	mov	r5,#0x86
      001154 7E 01            [12] 3822 	mov	r6,#0x01
      001156 7F 00            [12] 3823 	mov	r7,#0x00
      001158                       3824 00102$:
                                   3825 ;	C:\Users\Clovisf\Documents\ch552\bme680\BME680.c:217: return H;
      001158 8C 82            [24] 3826 	mov	dpl, r4
      00115A 8D 83            [24] 3827 	mov	dph, r5
      00115C 8E F0            [24] 3828 	mov	b, r6
      00115E EF               [12] 3829 	mov	a, r7
                                   3830 ;	C:\Users\Clovisf\Documents\ch552\bme680\BME680.c:218: }
      00115F 85*00 81         [24] 3831 	mov	sp,_bp
      001162 D0*00            [24] 3832 	pop	_bp
      001164 22               [24] 3833 	ret
                                   3834 ;------------------------------------------------------------
                                   3835 ;Allocation info for local variables in function 'BME680_init'
                                   3836 ;------------------------------------------------------------
                                   3837 ;chip_id       Allocated to registers r7 
                                   3838 ;i             Allocated to stack - _bp +1 +4 
                                   3839 ;------------------------------------------------------------
                                   3840 ;	C:\Users\Clovisf\Documents\ch552\bme680\BME680.c:222: uint8_t BME680_init(void) {
                                   3841 ;	-----------------------------------------
                                   3842 ;	 function BME680_init
                                   3843 ;	-----------------------------------------
      001165                       3844 _BME680_init:
      001165 C0*00            [24] 3845 	push	_bp
      001167 E5 81            [12] 3846 	mov	a,sp
      001169 F5*00            [12] 3847 	mov	_bp,a
      00116B 24 04            [12] 3848 	add	a,#0x04
      00116D F5 81            [12] 3849 	mov	sp,a
                                   3850 ;	C:\Users\Clovisf\Documents\ch552\bme680\BME680.c:225: Serial_println("SPI init...");
      00116F 90r00r00         [24] 3851 	mov	dptr,#___str_0
      001172 75 F0 80         [24] 3852 	mov	b, #0x80
      001175 12r00r00         [24] 3853 	lcall	_Serial_println
                                   3854 ;	C:\Users\Clovisf\Documents\ch552\bme680\BME680.c:226: spi_init();
      001178 12r00r00         [24] 3855 	lcall	_spi_init
                                   3856 ;	C:\Users\Clovisf\Documents\ch552\bme680\BME680.c:237: for (i = 0; i < 20000UL; i++) { __asm nop __endasm; }
      00117B A8*00            [24] 3857 	mov	r0,_bp
      00117D 08               [12] 3858 	inc	r0
      00117E E4               [12] 3859 	clr	a
      00117F F6               [12] 3860 	mov	@r0,a
      001180 08               [12] 3861 	inc	r0
      001181 F6               [12] 3862 	mov	@r0,a
      001182 08               [12] 3863 	inc	r0
      001183 F6               [12] 3864 	mov	@r0,a
      001184 08               [12] 3865 	inc	r0
      001185 F6               [12] 3866 	mov	@r0,a
      001186                       3867 00105$:
      001186 A8*00            [24] 3868 	mov	r0,_bp
      001188 08               [12] 3869 	inc	r0
      001189 C3               [12] 3870 	clr	c
      00118A E6               [12] 3871 	mov	a,@r0
      00118B 94 20            [12] 3872 	subb	a,#0x20
      00118D 08               [12] 3873 	inc	r0
      00118E E6               [12] 3874 	mov	a,@r0
      00118F 94 4E            [12] 3875 	subb	a,#0x4e
      001191 08               [12] 3876 	inc	r0
      001192 E6               [12] 3877 	mov	a,@r0
      001193 94 00            [12] 3878 	subb	a,#0x00
      001195 08               [12] 3879 	inc	r0
      001196 E6               [12] 3880 	mov	a,@r0
      001197 94 00            [12] 3881 	subb	a,#0x00
      001199 50 24            [24] 3882 	jnc	00101$
      00119B 00               [12] 3883 	nop	
      00119C A8*00            [24] 3884 	mov	r0,_bp
      00119E 08               [12] 3885 	inc	r0
      00119F 86 04            [24] 3886 	mov	ar4,@r0
      0011A1 08               [12] 3887 	inc	r0
      0011A2 86 05            [24] 3888 	mov	ar5,@r0
      0011A4 08               [12] 3889 	inc	r0
      0011A5 86 06            [24] 3890 	mov	ar6,@r0
      0011A7 08               [12] 3891 	inc	r0
      0011A8 86 07            [24] 3892 	mov	ar7,@r0
      0011AA A8*00            [24] 3893 	mov	r0,_bp
      0011AC 08               [12] 3894 	inc	r0
      0011AD 74 01            [12] 3895 	mov	a,#0x01
      0011AF 2C               [12] 3896 	add	a, r4
      0011B0 F6               [12] 3897 	mov	@r0,a
      0011B1 E4               [12] 3898 	clr	a
      0011B2 3D               [12] 3899 	addc	a, r5
      0011B3 08               [12] 3900 	inc	r0
      0011B4 F6               [12] 3901 	mov	@r0,a
      0011B5 E4               [12] 3902 	clr	a
      0011B6 3E               [12] 3903 	addc	a, r6
      0011B7 08               [12] 3904 	inc	r0
      0011B8 F6               [12] 3905 	mov	@r0,a
      0011B9 E4               [12] 3906 	clr	a
      0011BA 3F               [12] 3907 	addc	a, r7
      0011BB 08               [12] 3908 	inc	r0
      0011BC F6               [12] 3909 	mov	@r0,a
      0011BD 80 C7            [24] 3910 	sjmp	00105$
      0011BF                       3911 00101$:
                                   3912 ;	C:\Users\Clovisf\Documents\ch552\bme680\BME680.c:241: chip_id = reg_read(BME680_REG_CHIP_ID);
      0011BF 75 82 D0         [24] 3913 	mov	dpl, #0xd0
      0011C2 12r00r8B         [24] 3914 	lcall	_reg_read
      0011C5 AF 82            [24] 3915 	mov	r7, dpl
                                   3916 ;	C:\Users\Clovisf\Documents\ch552\bme680\BME680.c:242: Serial_print("Chip ID: ");
      0011C7 90r00r0C         [24] 3917 	mov	dptr,#___str_1
      0011CA 75 F0 80         [24] 3918 	mov	b, #0x80
      0011CD C0 07            [24] 3919 	push	ar7
      0011CF 12r00r00         [24] 3920 	lcall	_Serial_print
      0011D2 D0 07            [24] 3921 	pop	ar7
                                   3922 ;	C:\Users\Clovisf\Documents\ch552\bme680\BME680.c:243: Serial_print_uint(chip_id);
      0011D4 8F 05            [24] 3923 	mov	ar5,r7
      0011D6 7E 00            [12] 3924 	mov	r6,#0x00
      0011D8 8D 82            [24] 3925 	mov	dpl, r5
      0011DA 8E 83            [24] 3926 	mov	dph, r6
      0011DC C0 07            [24] 3927 	push	ar7
      0011DE 12r00r00         [24] 3928 	lcall	_Serial_print_uint
                                   3929 ;	C:\Users\Clovisf\Documents\ch552\bme680\BME680.c:244: Serial_println("");
      0011E1 90r00r16         [24] 3930 	mov	dptr,#___str_2
      0011E4 75 F0 80         [24] 3931 	mov	b, #0x80
      0011E7 12r00r00         [24] 3932 	lcall	_Serial_println
      0011EA D0 07            [24] 3933 	pop	ar7
                                   3934 ;	C:\Users\Clovisf\Documents\ch552\bme680\BME680.c:246: if (chip_id != BME680_CHIP_ID) {
      0011EC BF 61 02         [24] 3935 	cjne	r7,#0x61,00128$
      0011EF 80 11            [24] 3936 	sjmp	00103$
      0011F1                       3937 00128$:
                                   3938 ;	C:\Users\Clovisf\Documents\ch552\bme680\BME680.c:247: Serial_println("Chip ID FAILED - expected 97");
      0011F1 90r00r17         [24] 3939 	mov	dptr,#___str_3
      0011F4 75 F0 80         [24] 3940 	mov	b, #0x80
      0011F7 12r00r00         [24] 3941 	lcall	_Serial_println
                                   3942 ;	C:\Users\Clovisf\Documents\ch552\bme680\BME680.c:248: _state = BME680_STATE_ERROR;
      0011FA 75*1E 05         [24] 3943 	mov	__state,#0x05
                                   3944 ;	C:\Users\Clovisf\Documents\ch552\bme680\BME680.c:249: return 0;
      0011FD 75 82 00         [24] 3945 	mov	dpl, #0x00
      001200 80 5C            [24] 3946 	sjmp	00107$
      001202                       3947 00103$:
                                   3948 ;	C:\Users\Clovisf\Documents\ch552\bme680\BME680.c:252: Serial_println("Chip ID OK");
      001202 90r00r34         [24] 3949 	mov	dptr,#___str_4
      001205 75 F0 80         [24] 3950 	mov	b, #0x80
      001208 12r00r00         [24] 3951 	lcall	_Serial_println
                                   3952 ;	C:\Users\Clovisf\Documents\ch552\bme680\BME680.c:255: load_calibration();
      00120B 12r01r09         [24] 3953 	lcall	_load_calibration
                                   3954 ;	C:\Users\Clovisf\Documents\ch552\bme680\BME680.c:256: Serial_print("T1 calib: ");
      00120E 90r00r3F         [24] 3955 	mov	dptr,#___str_5
      001211 75 F0 80         [24] 3956 	mov	b, #0x80
      001214 12r00r00         [24] 3957 	lcall	_Serial_print
                                   3958 ;	C:\Users\Clovisf\Documents\ch552\bme680\BME680.c:257: Serial_print_uint(_calib.T1);
      001217 85*00 82         [24] 3959 	mov	dpl,__calib
      00121A 85*01 83         [24] 3960 	mov	dph,(__calib + 1)
      00121D 12r00r00         [24] 3961 	lcall	_Serial_print_uint
                                   3962 ;	C:\Users\Clovisf\Documents\ch552\bme680\BME680.c:258: Serial_println("");
      001220 90r00r16         [24] 3963 	mov	dptr,#___str_2
      001223 75 F0 80         [24] 3964 	mov	b, #0x80
      001226 12r00r00         [24] 3965 	lcall	_Serial_println
                                   3966 ;	C:\Users\Clovisf\Documents\ch552\bme680\BME680.c:261: reg_write(BME680_REG_CTRL_HUM,  BME680_OS_1X);
      001229 74 01            [12] 3967 	mov	a,#0x01
      00122B C0 E0            [24] 3968 	push	acc
      00122D 75 82 72         [24] 3969 	mov	dpl, #0x72
      001230 12r00r9B         [24] 3970 	lcall	_reg_write
      001233 15 81            [12] 3971 	dec	sp
                                   3972 ;	C:\Users\Clovisf\Documents\ch552\bme680\BME680.c:262: reg_write(BME680_REG_CTRL_MEAS, (BME680_OS_2X << 5) | (BME680_OS_4X << 2) | BME680_MODE_SLEEP);
      001235 74 4C            [12] 3973 	mov	a,#0x4c
      001237 C0 E0            [24] 3974 	push	acc
      001239 75 82 74         [24] 3975 	mov	dpl, #0x74
      00123C 12r00r9B         [24] 3976 	lcall	_reg_write
      00123F 15 81            [12] 3977 	dec	sp
                                   3978 ;	C:\Users\Clovisf\Documents\ch552\bme680\BME680.c:265: reg_write(BME680_REG_CONFIG, (BME680_FILTER_4 << 2));
      001241 74 08            [12] 3979 	mov	a,#0x08
      001243 C0 E0            [24] 3980 	push	acc
      001245 75 82 75         [24] 3981 	mov	dpl, #0x75
      001248 12r00r9B         [24] 3982 	lcall	_reg_write
      00124B 15 81            [12] 3983 	dec	sp
                                   3984 ;	C:\Users\Clovisf\Documents\ch552\bme680\BME680.c:268: reg_write(BME680_REG_CTRL_GAS1, 0x00);
      00124D E4               [12] 3985 	clr	a
      00124E C0 E0            [24] 3986 	push	acc
      001250 75 82 71         [24] 3987 	mov	dpl, #0x71
      001253 12r00r9B         [24] 3988 	lcall	_reg_write
      001256 15 81            [12] 3989 	dec	sp
                                   3990 ;	C:\Users\Clovisf\Documents\ch552\bme680\BME680.c:270: _state = BME680_STATE_IDLE;
      001258 75*1E 00         [24] 3991 	mov	__state,#0x00
                                   3992 ;	C:\Users\Clovisf\Documents\ch552\bme680\BME680.c:271: return 1;
      00125B 75 82 01         [24] 3993 	mov	dpl, #0x01
      00125E                       3994 00107$:
                                   3995 ;	C:\Users\Clovisf\Documents\ch552\bme680\BME680.c:272: }
      00125E 85*00 81         [24] 3996 	mov	sp,_bp
      001261 D0*00            [24] 3997 	pop	_bp
      001263 22               [24] 3998 	ret
                                   3999 ;------------------------------------------------------------
                                   4000 ;Allocation info for local variables in function 'BME680_update'
                                   4001 ;------------------------------------------------------------
                                   4002 ;out           Allocated to stack - _bp -5 +3 
                                   4003 ;tick          Allocated to registers r6 r7 
                                   4004 ;raw           Allocated to stack - _bp +8 +8 
                                   4005 ;adc_T         Allocated to stack - _bp +16 +4 
                                   4006 ;adc_P         Allocated to stack - _bp +20 +4 
                                   4007 ;adc_H         Allocated to stack - _bp +24 +2 
                                   4008 ;status        Allocated to registers 
                                   4009 ;sloc0         Allocated to stack - _bp +1 +4 
                                   4010 ;sloc1         Allocated to stack - _bp +5 +3 
                                   4011 ;------------------------------------------------------------
                                   4012 ;	C:\Users\Clovisf\Documents\ch552\bme680\BME680.c:274: uint8_t BME680_update(unsigned int tick, BME680_Data *out) {
                                   4013 ;	-----------------------------------------
                                   4014 ;	 function BME680_update
                                   4015 ;	-----------------------------------------
      001264                       4016 _BME680_update:
      001264 C0*00            [24] 4017 	push	_bp
      001266 E5 81            [12] 4018 	mov	a,sp
      001268 F5*00            [12] 4019 	mov	_bp,a
      00126A 24 19            [12] 4020 	add	a,#0x19
      00126C F5 81            [12] 4021 	mov	sp,a
      00126E AE 82            [24] 4022 	mov	r6, dpl
      001270 AF 83            [24] 4023 	mov	r7, dph
                                   4024 ;	C:\Users\Clovisf\Documents\ch552\bme680\BME680.c:280: switch (_state) {
      001272 E5*1E            [12] 4025 	mov	a,__state
      001274 24 FA            [12] 4026 	add	a,#0xff - 0x05
      001276 50 03            [24] 4027 	jnc	00133$
      001278 02r15r8A         [24] 4028 	ljmp	00112$
      00127B                       4029 00133$:
      00127B E5*1E            [12] 4030 	mov	a,__state
      00127D 75 F0 03         [24] 4031 	mov	b,#0x03
      001280 A4               [48] 4032 	mul	ab
      001281 90r12r85         [24] 4033 	mov	dptr,#00134$
      001284 73               [24] 4034 	jmp	@a+dptr
      001285                       4035 00134$:
      001285 02r12r97         [24] 4036 	ljmp	00101$
      001288 02r12r9D         [24] 4037 	ljmp	00102$
      00128B 02r12rBB         [24] 4038 	ljmp	00103$
      00128E 02r12rD6         [24] 4039 	ljmp	00106$
      001291 02r15r87         [24] 4040 	ljmp	00109$
      001294 02r15r8A         [24] 4041 	ljmp	00112$
                                   4042 ;	C:\Users\Clovisf\Documents\ch552\bme680\BME680.c:282: case BME680_STATE_IDLE:
      001297                       4043 00101$:
                                   4044 ;	C:\Users\Clovisf\Documents\ch552\bme680\BME680.c:283: _state = BME680_STATE_TRIGGER;
      001297 75*1E 01         [24] 4045 	mov	__state,#0x01
                                   4046 ;	C:\Users\Clovisf\Documents\ch552\bme680\BME680.c:284: break;
      00129A 02r15r8A         [24] 4047 	ljmp	00112$
                                   4048 ;	C:\Users\Clovisf\Documents\ch552\bme680\BME680.c:286: case BME680_STATE_TRIGGER:
      00129D                       4049 00102$:
                                   4050 ;	C:\Users\Clovisf\Documents\ch552\bme680\BME680.c:287: reg_write(BME680_REG_CTRL_MEAS,
      00129D C0 07            [24] 4051 	push	ar7
      00129F C0 06            [24] 4052 	push	ar6
      0012A1 74 4D            [12] 4053 	mov	a,#0x4d
      0012A3 C0 E0            [24] 4054 	push	acc
      0012A5 75 82 74         [24] 4055 	mov	dpl, #0x74
      0012A8 12r00r9B         [24] 4056 	lcall	_reg_write
      0012AB 15 81            [12] 4057 	dec	sp
      0012AD D0 06            [24] 4058 	pop	ar6
      0012AF D0 07            [24] 4059 	pop	ar7
                                   4060 ;	C:\Users\Clovisf\Documents\ch552\bme680\BME680.c:289: _wait_start = tick;
      0012B1 8E*1F            [24] 4061 	mov	__wait_start,r6
      0012B3 8F*20            [24] 4062 	mov	(__wait_start + 1),r7
                                   4063 ;	C:\Users\Clovisf\Documents\ch552\bme680\BME680.c:290: _state = BME680_STATE_WAITING;
      0012B5 75*1E 02         [24] 4064 	mov	__state,#0x02
                                   4065 ;	C:\Users\Clovisf\Documents\ch552\bme680\BME680.c:291: break;
      0012B8 02r15r8A         [24] 4066 	ljmp	00112$
                                   4067 ;	C:\Users\Clovisf\Documents\ch552\bme680\BME680.c:293: case BME680_STATE_WAITING:
      0012BB                       4068 00103$:
                                   4069 ;	C:\Users\Clovisf\Documents\ch552\bme680\BME680.c:294: if ((tick - _wait_start) >= BME680_MEAS_WAIT_TICKS) {
      0012BB EE               [12] 4070 	mov	a,r6
      0012BC C3               [12] 4071 	clr	c
      0012BD 95*1F            [12] 4072 	subb	a,__wait_start
      0012BF FE               [12] 4073 	mov	r6,a
      0012C0 EF               [12] 4074 	mov	a,r7
      0012C1 95*20            [12] 4075 	subb	a,(__wait_start + 1)
      0012C3 FF               [12] 4076 	mov	r7,a
      0012C4 C3               [12] 4077 	clr	c
      0012C5 EE               [12] 4078 	mov	a,r6
      0012C6 94 19            [12] 4079 	subb	a,#0x19
      0012C8 EF               [12] 4080 	mov	a,r7
      0012C9 94 00            [12] 4081 	subb	a,#0x00
      0012CB 50 03            [24] 4082 	jnc	00135$
      0012CD 02r15r8A         [24] 4083 	ljmp	00112$
      0012D0                       4084 00135$:
                                   4085 ;	C:\Users\Clovisf\Documents\ch552\bme680\BME680.c:295: _state = BME680_STATE_READ;
      0012D0 75*1E 03         [24] 4086 	mov	__state,#0x03
                                   4087 ;	C:\Users\Clovisf\Documents\ch552\bme680\BME680.c:297: break;
      0012D3 02r15r8A         [24] 4088 	ljmp	00112$
                                   4089 ;	C:\Users\Clovisf\Documents\ch552\bme680\BME680.c:299: case BME680_STATE_READ:
      0012D6                       4090 00106$:
                                   4091 ;	C:\Users\Clovisf\Documents\ch552\bme680\BME680.c:300: status = reg_read(BME680_REG_MEAS_STATUS);
      0012D6 75 82 1D         [24] 4092 	mov	dpl, #0x1d
      0012D9 12r00r8B         [24] 4093 	lcall	_reg_read
      0012DC E5 82            [12] 4094 	mov	a, dpl
                                   4095 ;	C:\Users\Clovisf\Documents\ch552\bme680\BME680.c:301: if (status & 0x80) {
      0012DE 20 E7 03         [24] 4096 	jb	acc.7,00136$
      0012E1 02r15r8A         [24] 4097 	ljmp	00112$
      0012E4                       4098 00136$:
                                   4099 ;	C:\Users\Clovisf\Documents\ch552\bme680\BME680.c:302: reg_read_burst(BME680_REG_PRES_MSB, raw, 8);
      0012E4 E5*00            [12] 4100 	mov	a,_bp
      0012E6 24 08            [12] 4101 	add	a,#0x08
      0012E8 F9               [12] 4102 	mov	r1,a
      0012E9 FD               [12] 4103 	mov	r5,a
      0012EA 7E 00            [12] 4104 	mov	r6,#0x00
      0012EC 7F 40            [12] 4105 	mov	r7,#0x40
      0012EE C0 01            [24] 4106 	push	ar1
      0012F0 74 08            [12] 4107 	mov	a,#0x08
      0012F2 C0 E0            [24] 4108 	push	acc
      0012F4 C0 05            [24] 4109 	push	ar5
      0012F6 C0 06            [24] 4110 	push	ar6
      0012F8 C0 07            [24] 4111 	push	ar7
      0012FA 75 82 1F         [24] 4112 	mov	dpl, #0x1f
      0012FD 12r00rB7         [24] 4113 	lcall	_reg_read_burst
      001300 E5 81            [12] 4114 	mov	a,sp
      001302 24 FC            [12] 4115 	add	a,#0xfc
      001304 F5 81            [12] 4116 	mov	sp,a
      001306 D0 01            [24] 4117 	pop	ar1
                                   4118 ;	C:\Users\Clovisf\Documents\ch552\bme680\BME680.c:304: adc_P = ((uint32_t)raw[0] << 12) |
      001308 87 07            [24] 4119 	mov	ar7,@r1
      00130A 7E 00            [12] 4120 	mov	r6,#0x00
      00130C 7D 00            [12] 4121 	mov	r5,#0x00
      00130E A8*00            [24] 4122 	mov	r0,_bp
      001310 08               [12] 4123 	inc	r0
      001311 08               [12] 4124 	inc	r0
      001312 08               [12] 4125 	inc	r0
      001313 A6 06            [24] 4126 	mov	@r0,ar6
      001315 ED               [12] 4127 	mov	a,r5
      001316 C4               [12] 4128 	swap	a
      001317 54 F0            [12] 4129 	anl	a,#0xf0
      001319 C6               [12] 4130 	xch	a,@r0
      00131A C4               [12] 4131 	swap	a
      00131B C6               [12] 4132 	xch	a,@r0
      00131C 66               [12] 4133 	xrl	a,@r0
      00131D C6               [12] 4134 	xch	a,@r0
      00131E 54 F0            [12] 4135 	anl	a,#0xf0
      001320 C6               [12] 4136 	xch	a,@r0
      001321 66               [12] 4137 	xrl	a,@r0
      001322 08               [12] 4138 	inc	r0
      001323 F6               [12] 4139 	mov	@r0,a
      001324 EF               [12] 4140 	mov	a,r7
      001325 C4               [12] 4141 	swap	a
      001326 54 0F            [12] 4142 	anl	a,#0x0f
      001328 18               [12] 4143 	dec	r0
      001329 46               [12] 4144 	orl	a,@r0
      00132A F6               [12] 4145 	mov	@r0,a
      00132B EF               [12] 4146 	mov	a,r7
      00132C C4               [12] 4147 	swap	a
      00132D 54 F0            [12] 4148 	anl	a,#0xf0
      00132F 18               [12] 4149 	dec	r0
      001330 F6               [12] 4150 	mov	@r0,a
      001331 18               [12] 4151 	dec	r0
      001332 76 00            [12] 4152 	mov	@r0,#0x00
                                   4153 ;	C:\Users\Clovisf\Documents\ch552\bme680\BME680.c:305: ((uint32_t)raw[1] << 4)  |
      001334 E9               [12] 4154 	mov	a,r1
      001335 04               [12] 4155 	inc	a
      001336 F8               [12] 4156 	mov	r0,a
      001337 86 03            [24] 4157 	mov	ar3,@r0
      001339 8B 02            [24] 4158 	mov	ar2,r3
      00133B E4               [12] 4159 	clr	a
      00133C FB               [12] 4160 	mov	r3,a
      00133D FE               [12] 4161 	mov	r6,a
      00133E C4               [12] 4162 	swap	a
      00133F 54 F0            [12] 4163 	anl	a,#0xf0
      001341 CE               [12] 4164 	xch	a,r6
      001342 C4               [12] 4165 	swap	a
      001343 CE               [12] 4166 	xch	a,r6
      001344 6E               [12] 4167 	xrl	a,r6
      001345 CE               [12] 4168 	xch	a,r6
      001346 54 F0            [12] 4169 	anl	a,#0xf0
      001348 CE               [12] 4170 	xch	a,r6
      001349 6E               [12] 4171 	xrl	a,r6
      00134A FF               [12] 4172 	mov	r7,a
      00134B EB               [12] 4173 	mov	a,r3
      00134C C4               [12] 4174 	swap	a
      00134D 54 0F            [12] 4175 	anl	a,#0x0f
      00134F 4E               [12] 4176 	orl	a,r6
      001350 FE               [12] 4177 	mov	r6,a
      001351 EB               [12] 4178 	mov	a,r3
      001352 C4               [12] 4179 	swap	a
      001353 54 F0            [12] 4180 	anl	a,#0xf0
      001355 CA               [12] 4181 	xch	a,r2
      001356 C4               [12] 4182 	swap	a
      001357 CA               [12] 4183 	xch	a,r2
      001358 6A               [12] 4184 	xrl	a,r2
      001359 CA               [12] 4185 	xch	a,r2
      00135A 54 F0            [12] 4186 	anl	a,#0xf0
      00135C CA               [12] 4187 	xch	a,r2
      00135D 6A               [12] 4188 	xrl	a,r2
      00135E FB               [12] 4189 	mov	r3,a
      00135F A8*00            [24] 4190 	mov	r0,_bp
      001361 08               [12] 4191 	inc	r0
      001362 EA               [12] 4192 	mov	a,r2
      001363 46               [12] 4193 	orl	a,@r0
      001364 F6               [12] 4194 	mov	@r0,a
      001365 EB               [12] 4195 	mov	a,r3
      001366 08               [12] 4196 	inc	r0
      001367 46               [12] 4197 	orl	a,@r0
      001368 F6               [12] 4198 	mov	@r0,a
      001369 EE               [12] 4199 	mov	a,r6
      00136A 08               [12] 4200 	inc	r0
      00136B 46               [12] 4201 	orl	a,@r0
      00136C F6               [12] 4202 	mov	@r0,a
      00136D EF               [12] 4203 	mov	a,r7
      00136E 08               [12] 4204 	inc	r0
      00136F 46               [12] 4205 	orl	a,@r0
      001370 F6               [12] 4206 	mov	@r0,a
                                   4207 ;	C:\Users\Clovisf\Documents\ch552\bme680\BME680.c:306: ((uint32_t)raw[2] >> 4);
      001371 74 02            [12] 4208 	mov	a,#0x02
      001373 29               [12] 4209 	add	a, r1
      001374 F8               [12] 4210 	mov	r0,a
      001375 86 05            [24] 4211 	mov	ar5,@r0
      001377 8D 04            [24] 4212 	mov	ar4,r5
      001379 E4               [12] 4213 	clr	a
      00137A FD               [12] 4214 	mov	r5,a
      00137B FE               [12] 4215 	mov	r6,a
      00137C FF               [12] 4216 	mov	r7,a
      00137D ED               [12] 4217 	mov	a,r5
      00137E C4               [12] 4218 	swap	a
      00137F CC               [12] 4219 	xch	a,r4
      001380 C4               [12] 4220 	swap	a
      001381 54 0F            [12] 4221 	anl	a,#0x0f
      001383 6C               [12] 4222 	xrl	a,r4
      001384 CC               [12] 4223 	xch	a,r4
      001385 54 0F            [12] 4224 	anl	a,#0x0f
      001387 CC               [12] 4225 	xch	a,r4
      001388 6C               [12] 4226 	xrl	a,r4
      001389 CC               [12] 4227 	xch	a,r4
      00138A FD               [12] 4228 	mov	r5,a
      00138B EE               [12] 4229 	mov	a,r6
      00138C C4               [12] 4230 	swap	a
      00138D 54 F0            [12] 4231 	anl	a,#0xf0
      00138F 4D               [12] 4232 	orl	a,r5
      001390 FD               [12] 4233 	mov	r5,a
      001391 EF               [12] 4234 	mov	a,r7
      001392 C4               [12] 4235 	swap	a
      001393 CE               [12] 4236 	xch	a,r6
      001394 C4               [12] 4237 	swap	a
      001395 54 0F            [12] 4238 	anl	a,#0x0f
      001397 6E               [12] 4239 	xrl	a,r6
      001398 CE               [12] 4240 	xch	a,r6
      001399 54 0F            [12] 4241 	anl	a,#0x0f
      00139B CE               [12] 4242 	xch	a,r6
      00139C 6E               [12] 4243 	xrl	a,r6
      00139D CE               [12] 4244 	xch	a,r6
      00139E FF               [12] 4245 	mov	r7,a
      00139F A8*00            [24] 4246 	mov	r0,_bp
      0013A1 08               [12] 4247 	inc	r0
      0013A2 C0 01            [24] 4248 	push	ar1
      0013A4 E5*00            [12] 4249 	mov	a,_bp
      0013A6 24 14            [12] 4250 	add	a,#0x14
      0013A8 F9               [12] 4251 	mov	r1,a
      0013A9 EC               [12] 4252 	mov	a,r4
      0013AA 46               [12] 4253 	orl	a,@r0
      0013AB F7               [12] 4254 	mov	@r1,a
      0013AC ED               [12] 4255 	mov	a,r5
      0013AD 08               [12] 4256 	inc	r0
      0013AE 46               [12] 4257 	orl	a,@r0
      0013AF 09               [12] 4258 	inc	r1
      0013B0 F7               [12] 4259 	mov	@r1,a
      0013B1 EE               [12] 4260 	mov	a,r6
      0013B2 08               [12] 4261 	inc	r0
      0013B3 46               [12] 4262 	orl	a,@r0
      0013B4 09               [12] 4263 	inc	r1
      0013B5 F7               [12] 4264 	mov	@r1,a
      0013B6 EF               [12] 4265 	mov	a,r7
      0013B7 08               [12] 4266 	inc	r0
      0013B8 46               [12] 4267 	orl	a,@r0
      0013B9 09               [12] 4268 	inc	r1
      0013BA F7               [12] 4269 	mov	@r1,a
      0013BB D0 01            [24] 4270 	pop	ar1
                                   4271 ;	C:\Users\Clovisf\Documents\ch552\bme680\BME680.c:308: adc_T = ((uint32_t)raw[3] << 12) |
      0013BD 74 03            [12] 4272 	mov	a,#0x03
      0013BF 29               [12] 4273 	add	a, r1
      0013C0 F8               [12] 4274 	mov	r0,a
      0013C1 86 03            [24] 4275 	mov	ar3,@r0
      0013C3 8B 02            [24] 4276 	mov	ar2,r3
      0013C5 7B 00            [12] 4277 	mov	r3,#0x00
      0013C7 7E 00            [12] 4278 	mov	r6,#0x00
      0013C9 A8*00            [24] 4279 	mov	r0,_bp
      0013CB 08               [12] 4280 	inc	r0
      0013CC 08               [12] 4281 	inc	r0
      0013CD 08               [12] 4282 	inc	r0
      0013CE A6 03            [24] 4283 	mov	@r0,ar3
      0013D0 EE               [12] 4284 	mov	a,r6
      0013D1 C4               [12] 4285 	swap	a
      0013D2 54 F0            [12] 4286 	anl	a,#0xf0
      0013D4 C6               [12] 4287 	xch	a,@r0
      0013D5 C4               [12] 4288 	swap	a
      0013D6 C6               [12] 4289 	xch	a,@r0
      0013D7 66               [12] 4290 	xrl	a,@r0
      0013D8 C6               [12] 4291 	xch	a,@r0
      0013D9 54 F0            [12] 4292 	anl	a,#0xf0
      0013DB C6               [12] 4293 	xch	a,@r0
      0013DC 66               [12] 4294 	xrl	a,@r0
      0013DD 08               [12] 4295 	inc	r0
      0013DE F6               [12] 4296 	mov	@r0,a
      0013DF EA               [12] 4297 	mov	a,r2
      0013E0 C4               [12] 4298 	swap	a
      0013E1 54 0F            [12] 4299 	anl	a,#0x0f
      0013E3 18               [12] 4300 	dec	r0
      0013E4 46               [12] 4301 	orl	a,@r0
      0013E5 F6               [12] 4302 	mov	@r0,a
      0013E6 EA               [12] 4303 	mov	a,r2
      0013E7 C4               [12] 4304 	swap	a
      0013E8 54 F0            [12] 4305 	anl	a,#0xf0
      0013EA 18               [12] 4306 	dec	r0
      0013EB F6               [12] 4307 	mov	@r0,a
      0013EC 18               [12] 4308 	dec	r0
      0013ED 76 00            [12] 4309 	mov	@r0,#0x00
                                   4310 ;	C:\Users\Clovisf\Documents\ch552\bme680\BME680.c:309: ((uint32_t)raw[4] << 4)  |
      0013EF 74 04            [12] 4311 	mov	a,#0x04
      0013F1 29               [12] 4312 	add	a, r1
      0013F2 F8               [12] 4313 	mov	r0,a
      0013F3 86 05            [24] 4314 	mov	ar5,@r0
      0013F5 8D 04            [24] 4315 	mov	ar4,r5
      0013F7 E4               [12] 4316 	clr	a
      0013F8 FD               [12] 4317 	mov	r5,a
      0013F9 FE               [12] 4318 	mov	r6,a
      0013FA C4               [12] 4319 	swap	a
      0013FB 54 F0            [12] 4320 	anl	a,#0xf0
      0013FD CE               [12] 4321 	xch	a,r6
      0013FE C4               [12] 4322 	swap	a
      0013FF CE               [12] 4323 	xch	a,r6
      001400 6E               [12] 4324 	xrl	a,r6
      001401 CE               [12] 4325 	xch	a,r6
      001402 54 F0            [12] 4326 	anl	a,#0xf0
      001404 CE               [12] 4327 	xch	a,r6
      001405 6E               [12] 4328 	xrl	a,r6
      001406 FF               [12] 4329 	mov	r7,a
      001407 ED               [12] 4330 	mov	a,r5
      001408 C4               [12] 4331 	swap	a
      001409 54 0F            [12] 4332 	anl	a,#0x0f
      00140B 4E               [12] 4333 	orl	a,r6
      00140C FE               [12] 4334 	mov	r6,a
      00140D ED               [12] 4335 	mov	a,r5
      00140E C4               [12] 4336 	swap	a
      00140F 54 F0            [12] 4337 	anl	a,#0xf0
      001411 CC               [12] 4338 	xch	a,r4
      001412 C4               [12] 4339 	swap	a
      001413 CC               [12] 4340 	xch	a,r4
      001414 6C               [12] 4341 	xrl	a,r4
      001415 CC               [12] 4342 	xch	a,r4
      001416 54 F0            [12] 4343 	anl	a,#0xf0
      001418 CC               [12] 4344 	xch	a,r4
      001419 6C               [12] 4345 	xrl	a,r4
      00141A FD               [12] 4346 	mov	r5,a
      00141B A8*00            [24] 4347 	mov	r0,_bp
      00141D 08               [12] 4348 	inc	r0
      00141E EC               [12] 4349 	mov	a,r4
      00141F 46               [12] 4350 	orl	a,@r0
      001420 F6               [12] 4351 	mov	@r0,a
      001421 ED               [12] 4352 	mov	a,r5
      001422 08               [12] 4353 	inc	r0
      001423 46               [12] 4354 	orl	a,@r0
      001424 F6               [12] 4355 	mov	@r0,a
      001425 EE               [12] 4356 	mov	a,r6
      001426 08               [12] 4357 	inc	r0
      001427 46               [12] 4358 	orl	a,@r0
      001428 F6               [12] 4359 	mov	@r0,a
      001429 EF               [12] 4360 	mov	a,r7
      00142A 08               [12] 4361 	inc	r0
      00142B 46               [12] 4362 	orl	a,@r0
      00142C F6               [12] 4363 	mov	@r0,a
                                   4364 ;	C:\Users\Clovisf\Documents\ch552\bme680\BME680.c:310: ((uint32_t)raw[5] >> 4);
      00142D 74 05            [12] 4365 	mov	a,#0x05
      00142F 29               [12] 4366 	add	a, r1
      001430 F8               [12] 4367 	mov	r0,a
      001431 86 03            [24] 4368 	mov	ar3,@r0
      001433 8B 02            [24] 4369 	mov	ar2,r3
      001435 E4               [12] 4370 	clr	a
      001436 FB               [12] 4371 	mov	r3,a
      001437 FE               [12] 4372 	mov	r6,a
      001438 FF               [12] 4373 	mov	r7,a
      001439 EB               [12] 4374 	mov	a,r3
      00143A C4               [12] 4375 	swap	a
      00143B CA               [12] 4376 	xch	a,r2
      00143C C4               [12] 4377 	swap	a
      00143D 54 0F            [12] 4378 	anl	a,#0x0f
      00143F 6A               [12] 4379 	xrl	a,r2
      001440 CA               [12] 4380 	xch	a,r2
      001441 54 0F            [12] 4381 	anl	a,#0x0f
      001443 CA               [12] 4382 	xch	a,r2
      001444 6A               [12] 4383 	xrl	a,r2
      001445 CA               [12] 4384 	xch	a,r2
      001446 FB               [12] 4385 	mov	r3,a
      001447 EE               [12] 4386 	mov	a,r6
      001448 C4               [12] 4387 	swap	a
      001449 54 F0            [12] 4388 	anl	a,#0xf0
      00144B 4B               [12] 4389 	orl	a,r3
      00144C FB               [12] 4390 	mov	r3,a
      00144D EF               [12] 4391 	mov	a,r7
      00144E C4               [12] 4392 	swap	a
      00144F CE               [12] 4393 	xch	a,r6
      001450 C4               [12] 4394 	swap	a
      001451 54 0F            [12] 4395 	anl	a,#0x0f
      001453 6E               [12] 4396 	xrl	a,r6
      001454 CE               [12] 4397 	xch	a,r6
      001455 54 0F            [12] 4398 	anl	a,#0x0f
      001457 CE               [12] 4399 	xch	a,r6
      001458 6E               [12] 4400 	xrl	a,r6
      001459 CE               [12] 4401 	xch	a,r6
      00145A FF               [12] 4402 	mov	r7,a
      00145B A8*00            [24] 4403 	mov	r0,_bp
      00145D 08               [12] 4404 	inc	r0
      00145E C0 01            [24] 4405 	push	ar1
      001460 E5*00            [12] 4406 	mov	a,_bp
      001462 24 10            [12] 4407 	add	a,#0x10
      001464 F9               [12] 4408 	mov	r1,a
      001465 EA               [12] 4409 	mov	a,r2
      001466 46               [12] 4410 	orl	a,@r0
      001467 F7               [12] 4411 	mov	@r1,a
      001468 EB               [12] 4412 	mov	a,r3
      001469 08               [12] 4413 	inc	r0
      00146A 46               [12] 4414 	orl	a,@r0
      00146B 09               [12] 4415 	inc	r1
      00146C F7               [12] 4416 	mov	@r1,a
      00146D EE               [12] 4417 	mov	a,r6
      00146E 08               [12] 4418 	inc	r0
      00146F 46               [12] 4419 	orl	a,@r0
      001470 09               [12] 4420 	inc	r1
      001471 F7               [12] 4421 	mov	@r1,a
      001472 EF               [12] 4422 	mov	a,r7
      001473 08               [12] 4423 	inc	r0
      001474 46               [12] 4424 	orl	a,@r0
      001475 09               [12] 4425 	inc	r1
      001476 F7               [12] 4426 	mov	@r1,a
      001477 D0 01            [24] 4427 	pop	ar1
                                   4428 ;	C:\Users\Clovisf\Documents\ch552\bme680\BME680.c:312: adc_H = ((uint16_t)raw[6] << 8) | raw[7];
      001479 74 06            [12] 4429 	mov	a,#0x06
      00147B 29               [12] 4430 	add	a, r1
      00147C F8               [12] 4431 	mov	r0,a
      00147D 86 05            [24] 4432 	mov	ar5,@r0
      00147F 8D 04            [24] 4433 	mov	ar4,r5
      001481 7D 00            [12] 4434 	mov	r5,#0x00
      001483 74 07            [12] 4435 	mov	a,#0x07
      001485 29               [12] 4436 	add	a, r1
      001486 F9               [12] 4437 	mov	r1,a
      001487 87 07            [24] 4438 	mov	ar7,@r1
      001489 7E 00            [12] 4439 	mov	r6,#0x00
      00148B E5*00            [12] 4440 	mov	a,_bp
      00148D 24 18            [12] 4441 	add	a,#0x18
      00148F F8               [12] 4442 	mov	r0,a
      001490 EF               [12] 4443 	mov	a,r7
      001491 4D               [12] 4444 	orl	a,r5
      001492 F6               [12] 4445 	mov	@r0,a
      001493 EE               [12] 4446 	mov	a,r6
      001494 4C               [12] 4447 	orl	a,r4
      001495 08               [12] 4448 	inc	r0
      001496 F6               [12] 4449 	mov	@r0,a
                                   4450 ;	C:\Users\Clovisf\Documents\ch552\bme680\BME680.c:314: out->temperature = compensate_temperature(adc_T);
      001497 E5*00            [12] 4451 	mov	a,_bp
      001499 24 FB            [12] 4452 	add	a,#0xfb
      00149B F8               [12] 4453 	mov	r0,a
      00149C E5*00            [12] 4454 	mov	a,_bp
      00149E 24 05            [12] 4455 	add	a,#0x05
      0014A0 F9               [12] 4456 	mov	r1,a
      0014A1 E6               [12] 4457 	mov	a,@r0
      0014A2 F7               [12] 4458 	mov	@r1,a
      0014A3 08               [12] 4459 	inc	r0
      0014A4 E6               [12] 4460 	mov	a,@r0
      0014A5 09               [12] 4461 	inc	r1
      0014A6 F7               [12] 4462 	mov	@r1,a
      0014A7 08               [12] 4463 	inc	r0
      0014A8 E6               [12] 4464 	mov	a,@r0
      0014A9 09               [12] 4465 	inc	r1
      0014AA F7               [12] 4466 	mov	@r1,a
      0014AB E5*00            [12] 4467 	mov	a,_bp
      0014AD 24 05            [12] 4468 	add	a,#0x05
      0014AF F8               [12] 4469 	mov	r0,a
      0014B0 A9*00            [24] 4470 	mov	r1,_bp
      0014B2 09               [12] 4471 	inc	r1
      0014B3 E6               [12] 4472 	mov	a,@r0
      0014B4 F7               [12] 4473 	mov	@r1,a
      0014B5 08               [12] 4474 	inc	r0
      0014B6 E6               [12] 4475 	mov	a,@r0
      0014B7 09               [12] 4476 	inc	r1
      0014B8 F7               [12] 4477 	mov	@r1,a
      0014B9 08               [12] 4478 	inc	r0
      0014BA E6               [12] 4479 	mov	a,@r0
      0014BB 09               [12] 4480 	inc	r1
      0014BC F7               [12] 4481 	mov	@r1,a
      0014BD E5*00            [12] 4482 	mov	a,_bp
      0014BF 24 10            [12] 4483 	add	a,#0x10
      0014C1 F8               [12] 4484 	mov	r0,a
      0014C2 86 82            [24] 4485 	mov	dpl, @r0
      0014C4 08               [12] 4486 	inc	r0
      0014C5 86 83            [24] 4487 	mov	dph, @r0
      0014C7 08               [12] 4488 	inc	r0
      0014C8 86 F0            [24] 4489 	mov	b, @r0
      0014CA E4               [12] 4490 	clr	a
      0014CB 12r03r7C         [24] 4491 	lcall	_compensate_temperature
      0014CE AA 82            [24] 4492 	mov	r2, dpl
      0014D0 AC 83            [24] 4493 	mov	r4, dph
      0014D2 AD F0            [24] 4494 	mov	r5, b
      0014D4 FF               [12] 4495 	mov	r7, a
      0014D5 A8*00            [24] 4496 	mov	r0,_bp
      0014D7 08               [12] 4497 	inc	r0
      0014D8 86 82            [24] 4498 	mov	dpl,@r0
      0014DA 08               [12] 4499 	inc	r0
      0014DB 86 83            [24] 4500 	mov	dph,@r0
      0014DD 08               [12] 4501 	inc	r0
      0014DE 86 F0            [24] 4502 	mov	b,@r0
      0014E0 EA               [12] 4503 	mov	a,r2
      0014E1 12r00r00         [24] 4504 	lcall	__gptrput
      0014E4 A3               [24] 4505 	inc	dptr
      0014E5 EC               [12] 4506 	mov	a,r4
      0014E6 12r00r00         [24] 4507 	lcall	__gptrput
      0014E9 A3               [24] 4508 	inc	dptr
      0014EA ED               [12] 4509 	mov	a,r5
      0014EB 12r00r00         [24] 4510 	lcall	__gptrput
      0014EE A3               [24] 4511 	inc	dptr
      0014EF EF               [12] 4512 	mov	a,r7
      0014F0 12r00r00         [24] 4513 	lcall	__gptrput
                                   4514 ;	C:\Users\Clovisf\Documents\ch552\bme680\BME680.c:315: out->pressure    = compensate_pressure(adc_P);
      0014F3 E5*00            [12] 4515 	mov	a,_bp
      0014F5 24 05            [12] 4516 	add	a,#0x05
      0014F7 F8               [12] 4517 	mov	r0,a
      0014F8 A9*00            [24] 4518 	mov	r1,_bp
      0014FA 09               [12] 4519 	inc	r1
      0014FB 74 04            [12] 4520 	mov	a,#0x04
      0014FD 26               [12] 4521 	add	a, @r0
      0014FE F7               [12] 4522 	mov	@r1,a
      0014FF E4               [12] 4523 	clr	a
      001500 08               [12] 4524 	inc	r0
      001501 36               [12] 4525 	addc	a, @r0
      001502 09               [12] 4526 	inc	r1
      001503 F7               [12] 4527 	mov	@r1,a
      001504 08               [12] 4528 	inc	r0
      001505 E6               [12] 4529 	mov	a,@r0
      001506 09               [12] 4530 	inc	r1
      001507 F7               [12] 4531 	mov	@r1,a
      001508 E5*00            [12] 4532 	mov	a,_bp
      00150A 24 14            [12] 4533 	add	a,#0x14
      00150C F8               [12] 4534 	mov	r0,a
      00150D 86 82            [24] 4535 	mov	dpl, @r0
      00150F 08               [12] 4536 	inc	r0
      001510 86 83            [24] 4537 	mov	dph, @r0
      001512 08               [12] 4538 	inc	r0
      001513 86 F0            [24] 4539 	mov	b, @r0
      001515 E4               [12] 4540 	clr	a
      001516 12r05r7C         [24] 4541 	lcall	_compensate_pressure
      001519 AA 82            [24] 4542 	mov	r2, dpl
      00151B AB 83            [24] 4543 	mov	r3, dph
      00151D AC F0            [24] 4544 	mov	r4, b
      00151F FF               [12] 4545 	mov	r7, a
      001520 A8*00            [24] 4546 	mov	r0,_bp
      001522 08               [12] 4547 	inc	r0
      001523 86 82            [24] 4548 	mov	dpl,@r0
      001525 08               [12] 4549 	inc	r0
      001526 86 83            [24] 4550 	mov	dph,@r0
      001528 08               [12] 4551 	inc	r0
      001529 86 F0            [24] 4552 	mov	b,@r0
      00152B EA               [12] 4553 	mov	a,r2
      00152C 12r00r00         [24] 4554 	lcall	__gptrput
      00152F A3               [24] 4555 	inc	dptr
      001530 EB               [12] 4556 	mov	a,r3
      001531 12r00r00         [24] 4557 	lcall	__gptrput
      001534 A3               [24] 4558 	inc	dptr
      001535 EC               [12] 4559 	mov	a,r4
      001536 12r00r00         [24] 4560 	lcall	__gptrput
      001539 A3               [24] 4561 	inc	dptr
      00153A EF               [12] 4562 	mov	a,r7
      00153B 12r00r00         [24] 4563 	lcall	__gptrput
                                   4564 ;	C:\Users\Clovisf\Documents\ch552\bme680\BME680.c:316: out->humidity    = compensate_humidity(adc_H);
      00153E E5*00            [12] 4565 	mov	a,_bp
      001540 24 05            [12] 4566 	add	a,#0x05
      001542 F8               [12] 4567 	mov	r0,a
      001543 74 08            [12] 4568 	mov	a,#0x08
      001545 26               [12] 4569 	add	a, @r0
      001546 F6               [12] 4570 	mov	@r0,a
      001547 E4               [12] 4571 	clr	a
      001548 08               [12] 4572 	inc	r0
      001549 36               [12] 4573 	addc	a, @r0
      00154A F6               [12] 4574 	mov	@r0,a
      00154B E5*00            [12] 4575 	mov	a,_bp
      00154D 24 18            [12] 4576 	add	a,#0x18
      00154F F8               [12] 4577 	mov	r0,a
      001550 86 82            [24] 4578 	mov	dpl, @r0
      001552 08               [12] 4579 	inc	r0
      001553 86 83            [24] 4580 	mov	dph, @r0
      001555 12r0CrE5         [24] 4581 	lcall	_compensate_humidity
      001558 AA 82            [24] 4582 	mov	r2, dpl
      00155A AB 83            [24] 4583 	mov	r3, dph
      00155C AC F0            [24] 4584 	mov	r4, b
      00155E FF               [12] 4585 	mov	r7, a
      00155F E5*00            [12] 4586 	mov	a,_bp
      001561 24 05            [12] 4587 	add	a,#0x05
      001563 F8               [12] 4588 	mov	r0,a
      001564 86 82            [24] 4589 	mov	dpl,@r0
      001566 08               [12] 4590 	inc	r0
      001567 86 83            [24] 4591 	mov	dph,@r0
      001569 08               [12] 4592 	inc	r0
      00156A 86 F0            [24] 4593 	mov	b,@r0
      00156C EA               [12] 4594 	mov	a,r2
      00156D 12r00r00         [24] 4595 	lcall	__gptrput
      001570 A3               [24] 4596 	inc	dptr
      001571 EB               [12] 4597 	mov	a,r3
      001572 12r00r00         [24] 4598 	lcall	__gptrput
      001575 A3               [24] 4599 	inc	dptr
      001576 EC               [12] 4600 	mov	a,r4
      001577 12r00r00         [24] 4601 	lcall	__gptrput
      00157A A3               [24] 4602 	inc	dptr
      00157B EF               [12] 4603 	mov	a,r7
      00157C 12r00r00         [24] 4604 	lcall	__gptrput
                                   4605 ;	C:\Users\Clovisf\Documents\ch552\bme680\BME680.c:318: _state = BME680_STATE_DONE;
      00157F 75*1E 04         [24] 4606 	mov	__state,#0x04
                                   4607 ;	C:\Users\Clovisf\Documents\ch552\bme680\BME680.c:319: return 1;
      001582 75 82 01         [24] 4608 	mov	dpl, #0x01
                                   4609 ;	C:\Users\Clovisf\Documents\ch552\bme680\BME680.c:323: case BME680_STATE_DONE:
      001585 80 06            [24] 4610 	sjmp	00113$
      001587                       4611 00109$:
                                   4612 ;	C:\Users\Clovisf\Documents\ch552\bme680\BME680.c:324: _state = BME680_STATE_IDLE;
      001587 75*1E 00         [24] 4613 	mov	__state,#0x00
                                   4614 ;	C:\Users\Clovisf\Documents\ch552\bme680\BME680.c:330: }
      00158A                       4615 00112$:
                                   4616 ;	C:\Users\Clovisf\Documents\ch552\bme680\BME680.c:332: return 0;
      00158A 75 82 00         [24] 4617 	mov	dpl, #0x00
      00158D                       4618 00113$:
                                   4619 ;	C:\Users\Clovisf\Documents\ch552\bme680\BME680.c:333: }
      00158D 85*00 81         [24] 4620 	mov	sp,_bp
      001590 D0*00            [24] 4621 	pop	_bp
      001592 22               [24] 4622 	ret
                                   4623 ;------------------------------------------------------------
                                   4624 ;Allocation info for local variables in function 'BME680_getState'
                                   4625 ;------------------------------------------------------------
                                   4626 ;	C:\Users\Clovisf\Documents\ch552\bme680\BME680.c:335: BME680_State BME680_getState(void) {
                                   4627 ;	-----------------------------------------
                                   4628 ;	 function BME680_getState
                                   4629 ;	-----------------------------------------
      001593                       4630 _BME680_getState:
                                   4631 ;	C:\Users\Clovisf\Documents\ch552\bme680\BME680.c:336: return _state;
      001593 85*1E 82         [24] 4632 	mov	dpl, __state
                                   4633 ;	C:\Users\Clovisf\Documents\ch552\bme680\BME680.c:337: }
      001596 22               [24] 4634 	ret
                                   4635 	.area CSEG    (CODE)
                                   4636 	.area CONST   (CODE)
                                   4637 	.area CONST   (CODE)
      000000                       4638 ___str_0:
      000000 53 50 49 20 69 6E 69  4639 	.ascii "SPI init..."
             74 2E 2E 2E
      00000B 00                    4640 	.db 0x00
                                   4641 	.area CSEG    (CODE)
                                   4642 	.area CONST   (CODE)
      00000C                       4643 ___str_1:
      00000C 43 68 69 70 20 49 44  4644 	.ascii "Chip ID: "
             3A 20
      000015 00                    4645 	.db 0x00
                                   4646 	.area CSEG    (CODE)
                                   4647 	.area CONST   (CODE)
      000016                       4648 ___str_2:
      000016 00                    4649 	.db 0x00
                                   4650 	.area CSEG    (CODE)
                                   4651 	.area CONST   (CODE)
      000017                       4652 ___str_3:
      000017 43 68 69 70 20 49 44  4653 	.ascii "Chip ID FAILED - expected 97"
             20 46 41 49 4C 45 44
             20 2D 20 65 78 70 65
             63 74 65 64 20 39 37
      000033 00                    4654 	.db 0x00
                                   4655 	.area CSEG    (CODE)
                                   4656 	.area CONST   (CODE)
      000034                       4657 ___str_4:
      000034 43 68 69 70 20 49 44  4658 	.ascii "Chip ID OK"
             20 4F 4B
      00003E 00                    4659 	.db 0x00
                                   4660 	.area CSEG    (CODE)
                                   4661 	.area CONST   (CODE)
      00003F                       4662 ___str_5:
      00003F 54 31 20 63 61 6C 69  4663 	.ascii "T1 calib: "
             62 3A 20
      000049 00                    4664 	.db 0x00
                                   4665 	.area CSEG    (CODE)
                                   4666 	.area XINIT   (CODE)
                                   4667 	.area CABS    (ABS,CODE)
